ARM GAS  /tmp/ccSukyrv.s 			page 1


   1              		.cpu cortex-m3
   2              		.eabi_attribute 20, 1
   3              		.eabi_attribute 21, 1
   4              		.eabi_attribute 23, 3
   5              		.eabi_attribute 24, 1
   6              		.eabi_attribute 25, 1
   7              		.eabi_attribute 26, 1
   8              		.eabi_attribute 30, 1
   9              		.eabi_attribute 34, 1
  10              		.eabi_attribute 18, 4
  11              		.file	"adc.c"
  12              		.text
  13              	.Ltext0:
  14              		.cfi_sections	.debug_frame
  15              		.section	.text.MX_ADC1_Init,"ax",%progbits
  16              		.align	1
  17              		.global	MX_ADC1_Init
  18              		.syntax unified
  19              		.thumb
  20              		.thumb_func
  21              		.fpu softvfp
  23              	MX_ADC1_Init:
  24              	.LFB65:
  25              		.file 1 "Src/adc.c"
   1:Src/adc.c     **** /**
   2:Src/adc.c     ****   ******************************************************************************
   3:Src/adc.c     ****   * File Name          : ADC.c
   4:Src/adc.c     ****   * Description        : This file provides code for the configuration
   5:Src/adc.c     ****   *                      of the ADC instances.
   6:Src/adc.c     ****   ******************************************************************************
   7:Src/adc.c     ****   * @attention
   8:Src/adc.c     ****   *
   9:Src/adc.c     ****   * <h2><center>&copy; Copyright (c) 2020 STMicroelectronics.
  10:Src/adc.c     ****   * All rights reserved.</center></h2>
  11:Src/adc.c     ****   *
  12:Src/adc.c     ****   * This software component is licensed by ST under Ultimate Liberty license
  13:Src/adc.c     ****   * SLA0044, the "License"; You may not use this file except in compliance with
  14:Src/adc.c     ****   * the License. You may obtain a copy of the License at:
  15:Src/adc.c     ****   *                             www.st.com/SLA0044
  16:Src/adc.c     ****   *
  17:Src/adc.c     ****   ******************************************************************************
  18:Src/adc.c     ****   */
  19:Src/adc.c     **** 
  20:Src/adc.c     **** /* Includes ------------------------------------------------------------------*/
  21:Src/adc.c     **** #include "adc.h"
  22:Src/adc.c     **** 
  23:Src/adc.c     **** /* USER CODE BEGIN 0 */
  24:Src/adc.c     **** 
  25:Src/adc.c     **** /* USER CODE END 0 */
  26:Src/adc.c     **** 
  27:Src/adc.c     **** ADC_HandleTypeDef hadc1;
  28:Src/adc.c     **** 
  29:Src/adc.c     **** /* ADC1 init function */
  30:Src/adc.c     **** void MX_ADC1_Init(void)
  31:Src/adc.c     **** {
  26              		.loc 1 31 0
  27              		.cfi_startproc
ARM GAS  /tmp/ccSukyrv.s 			page 2


  28              		@ args = 0, pretend = 0, frame = 16
  29              		@ frame_needed = 0, uses_anonymous_args = 0
  30 0000 00B5     		push	{lr}
  31              	.LCFI0:
  32              		.cfi_def_cfa_offset 4
  33              		.cfi_offset 14, -4
  34 0002 85B0     		sub	sp, sp, #20
  35              	.LCFI1:
  36              		.cfi_def_cfa_offset 24
  32:Src/adc.c     ****   ADC_ChannelConfTypeDef sConfig = {0};
  37              		.loc 1 32 0
  38 0004 0023     		movs	r3, #0
  39 0006 0193     		str	r3, [sp, #4]
  40 0008 0293     		str	r3, [sp, #8]
  41 000a 0393     		str	r3, [sp, #12]
  33:Src/adc.c     **** 
  34:Src/adc.c     ****   /** Common config 
  35:Src/adc.c     ****   */
  36:Src/adc.c     ****   hadc1.Instance = ADC1;
  42              		.loc 1 36 0
  43 000c 1048     		ldr	r0, .L7
  44 000e 114A     		ldr	r2, .L7+4
  45 0010 0260     		str	r2, [r0]
  37:Src/adc.c     ****   hadc1.Init.ScanConvMode = ADC_SCAN_DISABLE;
  46              		.loc 1 37 0
  47 0012 8360     		str	r3, [r0, #8]
  38:Src/adc.c     ****   hadc1.Init.ContinuousConvMode = DISABLE;
  48              		.loc 1 38 0
  49 0014 0373     		strb	r3, [r0, #12]
  39:Src/adc.c     ****   hadc1.Init.DiscontinuousConvMode = DISABLE;
  50              		.loc 1 39 0
  51 0016 0375     		strb	r3, [r0, #20]
  40:Src/adc.c     ****   hadc1.Init.ExternalTrigConv = ADC_SOFTWARE_START;
  52              		.loc 1 40 0
  53 0018 4FF46022 		mov	r2, #917504
  54 001c C261     		str	r2, [r0, #28]
  41:Src/adc.c     ****   hadc1.Init.DataAlign = ADC_DATAALIGN_RIGHT;
  55              		.loc 1 41 0
  56 001e 4360     		str	r3, [r0, #4]
  42:Src/adc.c     ****   hadc1.Init.NbrOfConversion = 1;
  57              		.loc 1 42 0
  58 0020 0123     		movs	r3, #1
  59 0022 0361     		str	r3, [r0, #16]
  43:Src/adc.c     ****   if (HAL_ADC_Init(&hadc1) != HAL_OK)
  60              		.loc 1 43 0
  61 0024 FFF7FEFF 		bl	HAL_ADC_Init
  62              	.LVL0:
  63 0028 60B9     		cbnz	r0, .L5
  64              	.L2:
  44:Src/adc.c     ****   {
  45:Src/adc.c     ****     Error_Handler();
  46:Src/adc.c     ****   }
  47:Src/adc.c     ****   /** Configure Regular Channel 
  48:Src/adc.c     ****   */
  49:Src/adc.c     ****   sConfig.Channel = ADC_CHANNEL_0;
  65              		.loc 1 49 0
  66 002a 0023     		movs	r3, #0
ARM GAS  /tmp/ccSukyrv.s 			page 3


  67 002c 0193     		str	r3, [sp, #4]
  50:Src/adc.c     ****   sConfig.Rank = ADC_REGULAR_RANK_1;
  68              		.loc 1 50 0
  69 002e 0122     		movs	r2, #1
  70 0030 0292     		str	r2, [sp, #8]
  51:Src/adc.c     ****   sConfig.SamplingTime = ADC_SAMPLETIME_1CYCLE_5;
  71              		.loc 1 51 0
  72 0032 0393     		str	r3, [sp, #12]
  52:Src/adc.c     ****   if (HAL_ADC_ConfigChannel(&hadc1, &sConfig) != HAL_OK)
  73              		.loc 1 52 0
  74 0034 01A9     		add	r1, sp, #4
  75 0036 0648     		ldr	r0, .L7
  76 0038 FFF7FEFF 		bl	HAL_ADC_ConfigChannel
  77              	.LVL1:
  78 003c 28B9     		cbnz	r0, .L6
  79              	.L1:
  53:Src/adc.c     ****   {
  54:Src/adc.c     ****     Error_Handler();
  55:Src/adc.c     ****   }
  56:Src/adc.c     **** 
  57:Src/adc.c     **** }
  80              		.loc 1 57 0
  81 003e 05B0     		add	sp, sp, #20
  82              	.LCFI2:
  83              		.cfi_remember_state
  84              		.cfi_def_cfa_offset 4
  85              		@ sp needed
  86 0040 5DF804FB 		ldr	pc, [sp], #4
  87              	.L5:
  88              	.LCFI3:
  89              		.cfi_restore_state
  45:Src/adc.c     ****   }
  90              		.loc 1 45 0
  91 0044 FFF7FEFF 		bl	Error_Handler
  92              	.LVL2:
  93 0048 EFE7     		b	.L2
  94              	.L6:
  54:Src/adc.c     ****   }
  95              		.loc 1 54 0
  96 004a FFF7FEFF 		bl	Error_Handler
  97              	.LVL3:
  98              		.loc 1 57 0
  99 004e F6E7     		b	.L1
 100              	.L8:
 101              		.align	2
 102              	.L7:
 103 0050 00000000 		.word	hadc1
 104 0054 00240140 		.word	1073816576
 105              		.cfi_endproc
 106              	.LFE65:
 108              		.section	.text.HAL_ADC_MspInit,"ax",%progbits
 109              		.align	1
 110              		.global	HAL_ADC_MspInit
 111              		.syntax unified
 112              		.thumb
 113              		.thumb_func
 114              		.fpu softvfp
ARM GAS  /tmp/ccSukyrv.s 			page 4


 116              	HAL_ADC_MspInit:
 117              	.LFB66:
  58:Src/adc.c     **** 
  59:Src/adc.c     **** void HAL_ADC_MspInit(ADC_HandleTypeDef* adcHandle)
  60:Src/adc.c     **** {
 118              		.loc 1 60 0
 119              		.cfi_startproc
 120              		@ args = 0, pretend = 0, frame = 24
 121              		@ frame_needed = 0, uses_anonymous_args = 0
 122              	.LVL4:
 123 0000 00B5     		push	{lr}
 124              	.LCFI4:
 125              		.cfi_def_cfa_offset 4
 126              		.cfi_offset 14, -4
 127 0002 87B0     		sub	sp, sp, #28
 128              	.LCFI5:
 129              		.cfi_def_cfa_offset 32
  61:Src/adc.c     **** 
  62:Src/adc.c     ****   GPIO_InitTypeDef GPIO_InitStruct = {0};
 130              		.loc 1 62 0
 131 0004 0023     		movs	r3, #0
 132 0006 0293     		str	r3, [sp, #8]
 133 0008 0393     		str	r3, [sp, #12]
 134 000a 0493     		str	r3, [sp, #16]
 135 000c 0593     		str	r3, [sp, #20]
  63:Src/adc.c     ****   if(adcHandle->Instance==ADC1)
 136              		.loc 1 63 0
 137 000e 0268     		ldr	r2, [r0]
 138 0010 114B     		ldr	r3, .L13
 139 0012 9A42     		cmp	r2, r3
 140 0014 02D0     		beq	.L12
 141              	.LVL5:
 142              	.L9:
  64:Src/adc.c     ****   {
  65:Src/adc.c     ****   /* USER CODE BEGIN ADC1_MspInit 0 */
  66:Src/adc.c     **** 
  67:Src/adc.c     ****   /* USER CODE END ADC1_MspInit 0 */
  68:Src/adc.c     ****     /* ADC1 clock enable */
  69:Src/adc.c     ****     __HAL_RCC_ADC1_CLK_ENABLE();
  70:Src/adc.c     ****   
  71:Src/adc.c     ****     __HAL_RCC_GPIOA_CLK_ENABLE();
  72:Src/adc.c     ****     /**ADC1 GPIO Configuration    
  73:Src/adc.c     ****     PA0-WKUP     ------> ADC1_IN0 
  74:Src/adc.c     ****     */
  75:Src/adc.c     ****     GPIO_InitStruct.Pin = RF_PWR_Pin;
  76:Src/adc.c     ****     GPIO_InitStruct.Mode = GPIO_MODE_ANALOG;
  77:Src/adc.c     ****     HAL_GPIO_Init(RF_PWR_GPIO_Port, &GPIO_InitStruct);
  78:Src/adc.c     **** 
  79:Src/adc.c     ****   /* USER CODE BEGIN ADC1_MspInit 1 */
  80:Src/adc.c     **** 
  81:Src/adc.c     ****   /* USER CODE END ADC1_MspInit 1 */
  82:Src/adc.c     ****   }
  83:Src/adc.c     **** }
 143              		.loc 1 83 0
 144 0016 07B0     		add	sp, sp, #28
 145              	.LCFI6:
 146              		.cfi_remember_state
ARM GAS  /tmp/ccSukyrv.s 			page 5


 147              		.cfi_def_cfa_offset 4
 148              		@ sp needed
 149 0018 5DF804FB 		ldr	pc, [sp], #4
 150              	.LVL6:
 151              	.L12:
 152              	.LCFI7:
 153              		.cfi_restore_state
 154              	.LBB2:
  69:Src/adc.c     ****   
 155              		.loc 1 69 0
 156 001c 03F56C43 		add	r3, r3, #60416
 157 0020 9A69     		ldr	r2, [r3, #24]
 158 0022 42F40072 		orr	r2, r2, #512
 159 0026 9A61     		str	r2, [r3, #24]
 160 0028 9A69     		ldr	r2, [r3, #24]
 161 002a 02F40072 		and	r2, r2, #512
 162 002e 0092     		str	r2, [sp]
 163 0030 009A     		ldr	r2, [sp]
 164              	.LBE2:
 165              	.LBB3:
  71:Src/adc.c     ****     /**ADC1 GPIO Configuration    
 166              		.loc 1 71 0
 167 0032 9A69     		ldr	r2, [r3, #24]
 168 0034 42F00402 		orr	r2, r2, #4
 169 0038 9A61     		str	r2, [r3, #24]
 170 003a 9B69     		ldr	r3, [r3, #24]
 171 003c 03F00403 		and	r3, r3, #4
 172 0040 0193     		str	r3, [sp, #4]
 173 0042 019B     		ldr	r3, [sp, #4]
 174              	.LBE3:
  75:Src/adc.c     ****     GPIO_InitStruct.Mode = GPIO_MODE_ANALOG;
 175              		.loc 1 75 0
 176 0044 0123     		movs	r3, #1
 177 0046 0293     		str	r3, [sp, #8]
  76:Src/adc.c     ****     HAL_GPIO_Init(RF_PWR_GPIO_Port, &GPIO_InitStruct);
 178              		.loc 1 76 0
 179 0048 0323     		movs	r3, #3
 180 004a 0393     		str	r3, [sp, #12]
  77:Src/adc.c     **** 
 181              		.loc 1 77 0
 182 004c 02A9     		add	r1, sp, #8
 183 004e 0348     		ldr	r0, .L13+4
 184              	.LVL7:
 185 0050 FFF7FEFF 		bl	HAL_GPIO_Init
 186              	.LVL8:
 187              		.loc 1 83 0
 188 0054 DFE7     		b	.L9
 189              	.L14:
 190 0056 00BF     		.align	2
 191              	.L13:
 192 0058 00240140 		.word	1073816576
 193 005c 00080140 		.word	1073809408
 194              		.cfi_endproc
 195              	.LFE66:
 197              		.section	.text.HAL_ADC_MspDeInit,"ax",%progbits
 198              		.align	1
 199              		.global	HAL_ADC_MspDeInit
ARM GAS  /tmp/ccSukyrv.s 			page 6


 200              		.syntax unified
 201              		.thumb
 202              		.thumb_func
 203              		.fpu softvfp
 205              	HAL_ADC_MspDeInit:
 206              	.LFB67:
  84:Src/adc.c     **** 
  85:Src/adc.c     **** void HAL_ADC_MspDeInit(ADC_HandleTypeDef* adcHandle)
  86:Src/adc.c     **** {
 207              		.loc 1 86 0
 208              		.cfi_startproc
 209              		@ args = 0, pretend = 0, frame = 0
 210              		@ frame_needed = 0, uses_anonymous_args = 0
 211              	.LVL9:
 212 0000 08B5     		push	{r3, lr}
 213              	.LCFI8:
 214              		.cfi_def_cfa_offset 8
 215              		.cfi_offset 3, -8
 216              		.cfi_offset 14, -4
  87:Src/adc.c     **** 
  88:Src/adc.c     ****   if(adcHandle->Instance==ADC1)
 217              		.loc 1 88 0
 218 0002 0268     		ldr	r2, [r0]
 219 0004 064B     		ldr	r3, .L19
 220 0006 9A42     		cmp	r2, r3
 221 0008 00D0     		beq	.L18
 222              	.LVL10:
 223              	.L15:
  89:Src/adc.c     ****   {
  90:Src/adc.c     ****   /* USER CODE BEGIN ADC1_MspDeInit 0 */
  91:Src/adc.c     **** 
  92:Src/adc.c     ****   /* USER CODE END ADC1_MspDeInit 0 */
  93:Src/adc.c     ****     /* Peripheral clock disable */
  94:Src/adc.c     ****     __HAL_RCC_ADC1_CLK_DISABLE();
  95:Src/adc.c     ****   
  96:Src/adc.c     ****     /**ADC1 GPIO Configuration    
  97:Src/adc.c     ****     PA0-WKUP     ------> ADC1_IN0 
  98:Src/adc.c     ****     */
  99:Src/adc.c     ****     HAL_GPIO_DeInit(RF_PWR_GPIO_Port, RF_PWR_Pin);
 100:Src/adc.c     **** 
 101:Src/adc.c     ****   /* USER CODE BEGIN ADC1_MspDeInit 1 */
 102:Src/adc.c     **** 
 103:Src/adc.c     ****   /* USER CODE END ADC1_MspDeInit 1 */
 104:Src/adc.c     ****   }
 105:Src/adc.c     **** } 
 224              		.loc 1 105 0
 225 000a 08BD     		pop	{r3, pc}
 226              	.LVL11:
 227              	.L18:
  94:Src/adc.c     ****   
 228              		.loc 1 94 0
 229 000c 054A     		ldr	r2, .L19+4
 230 000e 9369     		ldr	r3, [r2, #24]
 231 0010 23F40073 		bic	r3, r3, #512
 232 0014 9361     		str	r3, [r2, #24]
  99:Src/adc.c     **** 
 233              		.loc 1 99 0
ARM GAS  /tmp/ccSukyrv.s 			page 7


 234 0016 0121     		movs	r1, #1
 235 0018 0348     		ldr	r0, .L19+8
 236              	.LVL12:
 237 001a FFF7FEFF 		bl	HAL_GPIO_DeInit
 238              	.LVL13:
 239              		.loc 1 105 0
 240 001e F4E7     		b	.L15
 241              	.L20:
 242              		.align	2
 243              	.L19:
 244 0020 00240140 		.word	1073816576
 245 0024 00100240 		.word	1073876992
 246 0028 00080140 		.word	1073809408
 247              		.cfi_endproc
 248              	.LFE67:
 250              		.comm	hadc1,48,4
 251              		.text
 252              	.Letext0:
 253              		.file 2 "/usr/include/newlib/machine/_default_types.h"
 254              		.file 3 "/usr/include/newlib/sys/_stdint.h"
 255              		.file 4 "Drivers/CMSIS/Include/core_cm3.h"
 256              		.file 5 "Drivers/CMSIS/Device/ST/STM32F1xx/Include/system_stm32f1xx.h"
 257              		.file 6 "Drivers/CMSIS/Device/ST/STM32F1xx/Include/stm32f103xb.h"
 258              		.file 7 "Drivers/CMSIS/Device/ST/STM32F1xx/Include/stm32f1xx.h"
 259              		.file 8 "Drivers/STM32F1xx_HAL_Driver/Inc/stm32f1xx_hal_def.h"
 260              		.file 9 "Drivers/STM32F1xx_HAL_Driver/Inc/stm32f1xx_hal_gpio.h"
 261              		.file 10 "Drivers/STM32F1xx_HAL_Driver/Inc/stm32f1xx_hal_dma.h"
 262              		.file 11 "Drivers/STM32F1xx_HAL_Driver/Inc/stm32f1xx_hal_adc.h"
 263              		.file 12 "Drivers/STM32F1xx_HAL_Driver/Inc/stm32f1xx_hal.h"
 264              		.file 13 "Inc/main.h"
 265              		.file 14 "Inc/adc.h"
ARM GAS  /tmp/ccSukyrv.s 			page 8

