ARM GAS  /tmp/ccpN8THE.s 			page 1


   1              		.cpu cortex-m3
   2              		.eabi_attribute 20, 1
   3              		.eabi_attribute 21, 1
   4              		.eabi_attribute 23, 3
   5              		.eabi_attribute 24, 1
   6              		.eabi_attribute 25, 1
   7              		.eabi_attribute 26, 1
   8              		.eabi_attribute 30, 1
   9              		.eabi_attribute 34, 1
  10              		.eabi_attribute 18, 4
  11              		.file	"gpio.c"
  12              		.text
  13              	.Ltext0:
  14              		.cfi_sections	.debug_frame
  15              		.section	.text.MX_GPIO_Init,"ax",%progbits
  16              		.align	1
  17              		.global	MX_GPIO_Init
  18              		.syntax unified
  19              		.thumb
  20              		.thumb_func
  21              		.fpu softvfp
  23              	MX_GPIO_Init:
  24              	.LFB65:
  25              		.file 1 "Src/gpio.c"
   1:Src/gpio.c    **** /**
   2:Src/gpio.c    ****   ******************************************************************************
   3:Src/gpio.c    ****   * File Name          : gpio.c
   4:Src/gpio.c    ****   * Description        : This file provides code for the configuration
   5:Src/gpio.c    ****   *                      of all used GPIO pins.
   6:Src/gpio.c    ****   ******************************************************************************
   7:Src/gpio.c    ****   * @attention
   8:Src/gpio.c    ****   *
   9:Src/gpio.c    ****   * <h2><center>&copy; Copyright (c) 2020 STMicroelectronics.
  10:Src/gpio.c    ****   * All rights reserved.</center></h2>
  11:Src/gpio.c    ****   *
  12:Src/gpio.c    ****   * This software component is licensed by ST under Ultimate Liberty license
  13:Src/gpio.c    ****   * SLA0044, the "License"; You may not use this file except in compliance with
  14:Src/gpio.c    ****   * the License. You may obtain a copy of the License at:
  15:Src/gpio.c    ****   *                             www.st.com/SLA0044
  16:Src/gpio.c    ****   *
  17:Src/gpio.c    ****   ******************************************************************************
  18:Src/gpio.c    ****   */
  19:Src/gpio.c    **** 
  20:Src/gpio.c    **** /* Includes ------------------------------------------------------------------*/
  21:Src/gpio.c    **** #include "gpio.h"
  22:Src/gpio.c    **** /* USER CODE BEGIN 0 */
  23:Src/gpio.c    **** 
  24:Src/gpio.c    **** /* USER CODE END 0 */
  25:Src/gpio.c    **** 
  26:Src/gpio.c    **** /*----------------------------------------------------------------------------*/
  27:Src/gpio.c    **** /* Configure GPIO                                                             */
  28:Src/gpio.c    **** /*----------------------------------------------------------------------------*/
  29:Src/gpio.c    **** /* USER CODE BEGIN 1 */
  30:Src/gpio.c    **** 
  31:Src/gpio.c    **** /* USER CODE END 1 */
  32:Src/gpio.c    **** 
  33:Src/gpio.c    **** /** Configure pins as 
ARM GAS  /tmp/ccpN8THE.s 			page 2


  34:Src/gpio.c    ****         * Analog 
  35:Src/gpio.c    ****         * Input 
  36:Src/gpio.c    ****         * Output
  37:Src/gpio.c    ****         * EVENT_OUT
  38:Src/gpio.c    ****         * EXTI
  39:Src/gpio.c    ****         * Free pins are configured automatically as Analog (this feature is enabled through 
  40:Src/gpio.c    ****         * the Code Generation settings)
  41:Src/gpio.c    **** */
  42:Src/gpio.c    **** void MX_GPIO_Init(void)
  43:Src/gpio.c    **** {
  26              		.loc 1 43 0
  27              		.cfi_startproc
  28              		@ args = 0, pretend = 0, frame = 32
  29              		@ frame_needed = 0, uses_anonymous_args = 0
  30 0000 2DE9F043 		push	{r4, r5, r6, r7, r8, r9, lr}
  31              	.LCFI0:
  32              		.cfi_def_cfa_offset 28
  33              		.cfi_offset 4, -28
  34              		.cfi_offset 5, -24
  35              		.cfi_offset 6, -20
  36              		.cfi_offset 7, -16
  37              		.cfi_offset 8, -12
  38              		.cfi_offset 9, -8
  39              		.cfi_offset 14, -4
  40 0004 89B0     		sub	sp, sp, #36
  41              	.LCFI1:
  42              		.cfi_def_cfa_offset 64
  44:Src/gpio.c    **** 
  45:Src/gpio.c    ****   GPIO_InitTypeDef GPIO_InitStruct = {0};
  43              		.loc 1 45 0
  44 0006 0024     		movs	r4, #0
  45 0008 0494     		str	r4, [sp, #16]
  46 000a 0594     		str	r4, [sp, #20]
  47 000c 0694     		str	r4, [sp, #24]
  48 000e 0794     		str	r4, [sp, #28]
  49              	.LBB2:
  46:Src/gpio.c    **** 
  47:Src/gpio.c    ****   /* GPIO Ports Clock Enable */
  48:Src/gpio.c    ****   __HAL_RCC_GPIOC_CLK_ENABLE();
  50              		.loc 1 48 0
  51 0010 3D4B     		ldr	r3, .L3
  52 0012 9A69     		ldr	r2, [r3, #24]
  53 0014 42F01002 		orr	r2, r2, #16
  54 0018 9A61     		str	r2, [r3, #24]
  55 001a 9A69     		ldr	r2, [r3, #24]
  56 001c 02F01002 		and	r2, r2, #16
  57 0020 0092     		str	r2, [sp]
  58 0022 009A     		ldr	r2, [sp]
  59              	.LBE2:
  60              	.LBB3:
  49:Src/gpio.c    ****   __HAL_RCC_GPIOD_CLK_ENABLE();
  61              		.loc 1 49 0
  62 0024 9A69     		ldr	r2, [r3, #24]
  63 0026 42F02002 		orr	r2, r2, #32
  64 002a 9A61     		str	r2, [r3, #24]
  65 002c 9A69     		ldr	r2, [r3, #24]
  66 002e 02F02002 		and	r2, r2, #32
ARM GAS  /tmp/ccpN8THE.s 			page 3


  67 0032 0192     		str	r2, [sp, #4]
  68 0034 019A     		ldr	r2, [sp, #4]
  69              	.LBE3:
  70              	.LBB4:
  50:Src/gpio.c    ****   __HAL_RCC_GPIOA_CLK_ENABLE();
  71              		.loc 1 50 0
  72 0036 9A69     		ldr	r2, [r3, #24]
  73 0038 42F00402 		orr	r2, r2, #4
  74 003c 9A61     		str	r2, [r3, #24]
  75 003e 9A69     		ldr	r2, [r3, #24]
  76 0040 02F00402 		and	r2, r2, #4
  77 0044 0292     		str	r2, [sp, #8]
  78 0046 029A     		ldr	r2, [sp, #8]
  79              	.LBE4:
  80              	.LBB5:
  51:Src/gpio.c    ****   __HAL_RCC_GPIOB_CLK_ENABLE();
  81              		.loc 1 51 0
  82 0048 9A69     		ldr	r2, [r3, #24]
  83 004a 42F00802 		orr	r2, r2, #8
  84 004e 9A61     		str	r2, [r3, #24]
  85 0050 9B69     		ldr	r3, [r3, #24]
  86 0052 03F00803 		and	r3, r3, #8
  87 0056 0393     		str	r3, [sp, #12]
  88 0058 039B     		ldr	r3, [sp, #12]
  89              	.LBE5:
  52:Src/gpio.c    **** 
  53:Src/gpio.c    ****   /*Configure GPIO pin Output Level */
  54:Src/gpio.c    ****   HAL_GPIO_WritePin(GPIOA, MAX_LE_Pin|MAX_RFOUT_EN_Pin|nLED_OE_Pin|ATTEN_LE_Pin 
  90              		.loc 1 54 0
  91 005a 2C4E     		ldr	r6, .L3+4
  92 005c 2246     		mov	r2, r4
  93 005e 4FF4F371 		mov	r1, #486
  94 0062 3046     		mov	r0, r6
  95 0064 FFF7FEFF 		bl	HAL_GPIO_WritePin
  96              	.LVL0:
  55:Src/gpio.c    ****                           |ATTEN_SDO_Pin|nLED_USR_Pin, GPIO_PIN_RESET);
  56:Src/gpio.c    **** 
  57:Src/gpio.c    ****   /*Configure GPIO pin Output Level */
  58:Src/gpio.c    ****   HAL_GPIO_WritePin(GPIOB, ATTEN_CLK_Pin|LED_SDI_Pin|LED_CLK_Pin|LED_LE_Pin 
  97              		.loc 1 58 0
  98 0068 294D     		ldr	r5, .L3+8
  99 006a 2246     		mov	r2, r4
 100 006c 41F67971 		movw	r1, #8057
 101 0070 2846     		mov	r0, r5
 102 0072 FFF7FEFF 		bl	HAL_GPIO_WritePin
 103              	.LVL1:
  59:Src/gpio.c    ****                           |MAX_CE_Pin|MAX_DAT_Pin|MAX_CLK_Pin|LED_Pin 
  60:Src/gpio.c    ****                           |ATTEN_SDI_Pin|PA_PWDN_Pin, GPIO_PIN_RESET);
  61:Src/gpio.c    **** 
  62:Src/gpio.c    ****   /*Configure GPIO pins : PC13 PC14 PC15 */
  63:Src/gpio.c    ****   GPIO_InitStruct.Pin = GPIO_PIN_13|GPIO_PIN_14|GPIO_PIN_15;
 104              		.loc 1 63 0
 105 0076 4FF46043 		mov	r3, #57344
 106 007a 0493     		str	r3, [sp, #16]
  64:Src/gpio.c    ****   GPIO_InitStruct.Mode = GPIO_MODE_ANALOG;
 107              		.loc 1 64 0
 108 007c 0327     		movs	r7, #3
ARM GAS  /tmp/ccpN8THE.s 			page 4


 109 007e 0597     		str	r7, [sp, #20]
  65:Src/gpio.c    ****   HAL_GPIO_Init(GPIOC, &GPIO_InitStruct);
 110              		.loc 1 65 0
 111 0080 04A9     		add	r1, sp, #16
 112 0082 2448     		ldr	r0, .L3+12
 113 0084 FFF7FEFF 		bl	HAL_GPIO_Init
 114              	.LVL2:
  66:Src/gpio.c    **** 
  67:Src/gpio.c    ****   /*Configure GPIO pins : PAPin PAPin PAPin PAPin 
  68:Src/gpio.c    ****                            PAPin PAPin */
  69:Src/gpio.c    ****   GPIO_InitStruct.Pin = MAX_LE_Pin|MAX_RFOUT_EN_Pin|nLED_OE_Pin|ATTEN_LE_Pin 
 115              		.loc 1 69 0
 116 0088 4FF4F373 		mov	r3, #486
 117 008c 0493     		str	r3, [sp, #16]
  70:Src/gpio.c    ****                           |ATTEN_SDO_Pin|nLED_USR_Pin;
  71:Src/gpio.c    ****   GPIO_InitStruct.Mode = GPIO_MODE_OUTPUT_PP;
 118              		.loc 1 71 0
 119 008e 4FF00109 		mov	r9, #1
 120 0092 CDF81490 		str	r9, [sp, #20]
  72:Src/gpio.c    ****   GPIO_InitStruct.Pull = GPIO_NOPULL;
 121              		.loc 1 72 0
 122 0096 0694     		str	r4, [sp, #24]
  73:Src/gpio.c    ****   GPIO_InitStruct.Speed = GPIO_SPEED_FREQ_LOW;
 123              		.loc 1 73 0
 124 0098 4FF00208 		mov	r8, #2
 125 009c CDF81C80 		str	r8, [sp, #28]
  74:Src/gpio.c    ****   HAL_GPIO_Init(GPIOA, &GPIO_InitStruct);
 126              		.loc 1 74 0
 127 00a0 04A9     		add	r1, sp, #16
 128 00a2 3046     		mov	r0, r6
 129 00a4 FFF7FEFF 		bl	HAL_GPIO_Init
 130              	.LVL3:
  75:Src/gpio.c    **** 
  76:Src/gpio.c    ****   /*Configure GPIO pins : PAPin PAPin */
  77:Src/gpio.c    ****   GPIO_InitStruct.Pin = MAX_LD_Pin|USB_PU_Pin;
 131              		.loc 1 77 0
 132 00a8 48F20803 		movw	r3, #32776
 133 00ac 0493     		str	r3, [sp, #16]
  78:Src/gpio.c    ****   GPIO_InitStruct.Mode = GPIO_MODE_INPUT;
 134              		.loc 1 78 0
 135 00ae 0594     		str	r4, [sp, #20]
  79:Src/gpio.c    ****   GPIO_InitStruct.Pull = GPIO_NOPULL;
 136              		.loc 1 79 0
 137 00b0 0694     		str	r4, [sp, #24]
  80:Src/gpio.c    ****   HAL_GPIO_Init(GPIOA, &GPIO_InitStruct);
 138              		.loc 1 80 0
 139 00b2 04A9     		add	r1, sp, #16
 140 00b4 3046     		mov	r0, r6
 141 00b6 FFF7FEFF 		bl	HAL_GPIO_Init
 142              	.LVL4:
  81:Src/gpio.c    **** 
  82:Src/gpio.c    ****   /*Configure GPIO pins : PA4 PA9 PA10 */
  83:Src/gpio.c    ****   GPIO_InitStruct.Pin = GPIO_PIN_4|GPIO_PIN_9|GPIO_PIN_10;
 143              		.loc 1 83 0
 144 00ba 4FF4C263 		mov	r3, #1552
 145 00be 0493     		str	r3, [sp, #16]
  84:Src/gpio.c    ****   GPIO_InitStruct.Mode = GPIO_MODE_ANALOG;
ARM GAS  /tmp/ccpN8THE.s 			page 5


 146              		.loc 1 84 0
 147 00c0 0597     		str	r7, [sp, #20]
  85:Src/gpio.c    ****   HAL_GPIO_Init(GPIOA, &GPIO_InitStruct);
 148              		.loc 1 85 0
 149 00c2 04A9     		add	r1, sp, #16
 150 00c4 3046     		mov	r0, r6
 151 00c6 FFF7FEFF 		bl	HAL_GPIO_Init
 152              	.LVL5:
  86:Src/gpio.c    **** 
  87:Src/gpio.c    ****   /*Configure GPIO pins : PBPin PBPin PBPin PBPin 
  88:Src/gpio.c    ****                            PBPin PBPin PBPin PBPin 
  89:Src/gpio.c    ****                            PBPin PBPin */
  90:Src/gpio.c    ****   GPIO_InitStruct.Pin = ATTEN_CLK_Pin|LED_SDI_Pin|LED_CLK_Pin|LED_LE_Pin 
 153              		.loc 1 90 0
 154 00ca 41F67973 		movw	r3, #8057
 155 00ce 0493     		str	r3, [sp, #16]
  91:Src/gpio.c    ****                           |MAX_CE_Pin|MAX_DAT_Pin|MAX_CLK_Pin|LED_Pin 
  92:Src/gpio.c    ****                           |ATTEN_SDI_Pin|PA_PWDN_Pin;
  93:Src/gpio.c    ****   GPIO_InitStruct.Mode = GPIO_MODE_OUTPUT_PP;
 156              		.loc 1 93 0
 157 00d0 CDF81490 		str	r9, [sp, #20]
  94:Src/gpio.c    ****   GPIO_InitStruct.Pull = GPIO_NOPULL;
 158              		.loc 1 94 0
 159 00d4 0694     		str	r4, [sp, #24]
  95:Src/gpio.c    ****   GPIO_InitStruct.Speed = GPIO_SPEED_FREQ_LOW;
 160              		.loc 1 95 0
 161 00d6 CDF81C80 		str	r8, [sp, #28]
  96:Src/gpio.c    ****   HAL_GPIO_Init(GPIOB, &GPIO_InitStruct);
 162              		.loc 1 96 0
 163 00da 04A9     		add	r1, sp, #16
 164 00dc 2846     		mov	r0, r5
 165 00de FFF7FEFF 		bl	HAL_GPIO_Init
 166              	.LVL6:
  97:Src/gpio.c    **** 
  98:Src/gpio.c    ****   /*Configure GPIO pins : PB1 PB2 */
  99:Src/gpio.c    ****   GPIO_InitStruct.Pin = GPIO_PIN_1|GPIO_PIN_2;
 167              		.loc 1 99 0
 168 00e2 0623     		movs	r3, #6
 169 00e4 0493     		str	r3, [sp, #16]
 100:Src/gpio.c    ****   GPIO_InitStruct.Mode = GPIO_MODE_ANALOG;
 170              		.loc 1 100 0
 171 00e6 0597     		str	r7, [sp, #20]
 101:Src/gpio.c    ****   HAL_GPIO_Init(GPIOB, &GPIO_InitStruct);
 172              		.loc 1 101 0
 173 00e8 04A9     		add	r1, sp, #16
 174 00ea 2846     		mov	r0, r5
 175 00ec FFF7FEFF 		bl	HAL_GPIO_Init
 176              	.LVL7:
 102:Src/gpio.c    **** 
 103:Src/gpio.c    ****   /*Configure GPIO pin : PtPin */
 104:Src/gpio.c    ****   GPIO_InitStruct.Pin = MAX_MUX_Pin;
 177              		.loc 1 104 0
 178 00f0 8023     		movs	r3, #128
 179 00f2 0493     		str	r3, [sp, #16]
 105:Src/gpio.c    ****   GPIO_InitStruct.Mode = GPIO_MODE_INPUT;
 180              		.loc 1 105 0
 181 00f4 0594     		str	r4, [sp, #20]
ARM GAS  /tmp/ccpN8THE.s 			page 6


 106:Src/gpio.c    ****   GPIO_InitStruct.Pull = GPIO_NOPULL;
 182              		.loc 1 106 0
 183 00f6 0694     		str	r4, [sp, #24]
 107:Src/gpio.c    ****   HAL_GPIO_Init(MAX_MUX_GPIO_Port, &GPIO_InitStruct);
 184              		.loc 1 107 0
 185 00f8 04A9     		add	r1, sp, #16
 186 00fa 2846     		mov	r0, r5
 187 00fc FFF7FEFF 		bl	HAL_GPIO_Init
 188              	.LVL8:
 108:Src/gpio.c    **** 
 109:Src/gpio.c    **** }
 189              		.loc 1 109 0
 190 0100 09B0     		add	sp, sp, #36
 191              	.LCFI2:
 192              		.cfi_def_cfa_offset 28
 193              		@ sp needed
 194 0102 BDE8F083 		pop	{r4, r5, r6, r7, r8, r9, pc}
 195              	.L4:
 196 0106 00BF     		.align	2
 197              	.L3:
 198 0108 00100240 		.word	1073876992
 199 010c 00080140 		.word	1073809408
 200 0110 000C0140 		.word	1073810432
 201 0114 00100140 		.word	1073811456
 202              		.cfi_endproc
 203              	.LFE65:
 205              		.text
 206              	.Letext0:
 207              		.file 2 "/usr/include/newlib/machine/_default_types.h"
 208              		.file 3 "/usr/include/newlib/sys/_stdint.h"
 209              		.file 4 "Drivers/CMSIS/Include/core_cm3.h"
 210              		.file 5 "Drivers/CMSIS/Device/ST/STM32F1xx/Include/system_stm32f1xx.h"
 211              		.file 6 "Drivers/CMSIS/Device/ST/STM32F1xx/Include/stm32f103xb.h"
 212              		.file 7 "Drivers/STM32F1xx_HAL_Driver/Inc/stm32f1xx_hal_gpio.h"
 213              		.file 8 "Drivers/STM32F1xx_HAL_Driver/Inc/stm32f1xx_hal.h"
 214              		.file 9 "Inc/main.h"
ARM GAS  /tmp/ccpN8THE.s 			page 7

