ARM GAS  /tmp/ccBlGcgZ.s 			page 1


   1              		.cpu cortex-m3
   2              		.eabi_attribute 20, 1
   3              		.eabi_attribute 21, 1
   4              		.eabi_attribute 23, 3
   5              		.eabi_attribute 24, 1
   6              		.eabi_attribute 25, 1
   7              		.eabi_attribute 26, 1
   8              		.eabi_attribute 30, 1
   9              		.eabi_attribute 34, 1
  10              		.eabi_attribute 18, 4
  11              		.file	"txChain.c"
  12              		.text
  13              	.Ltext0:
  14              		.cfi_sections	.debug_frame
  15              		.global	__aeabi_fmul
  16              		.global	__aeabi_f2uiz
  17              		.section	.text.setAttenuation,"ax",%progbits
  18              		.align	1
  19              		.global	setAttenuation
  20              		.syntax unified
  21              		.thumb
  22              		.thumb_func
  23              		.fpu softvfp
  25              	setAttenuation:
  26              	.LFB72:
  27              		.file 1 "Src/txChain.c"
   1:Src/txChain.c **** #include "main.h"
   2:Src/txChain.c **** #include "txChain.h"
   3:Src/txChain.c **** #include "max2871.h"
   4:Src/txChain.c **** #include "dwt_stm32_delay.h"
   5:Src/txChain.c **** #include "usbd_cdc_if.h"
   6:Src/txChain.c **** #include <string.h>
   7:Src/txChain.c **** #include <stdlib.h>
   8:Src/txChain.c **** #include <math.h>
   9:Src/txChain.c **** #include "STP08CP05.h"d
  10:Src/txChain.c **** 
  11:Src/txChain.c **** extern ADC_HandleTypeDef hadc1;
  12:Src/txChain.c **** 
  13:Src/txChain.c **** struct txStruct txStatus;
  14:Src/txChain.c **** 
  15:Src/txChain.c **** // Sets up output for given frequency and power level
  16:Src/txChain.c **** void sigGen(float frequency, float power, struct MAX2871Struct *max2871Status, struct txStruct *txS
  17:Src/txChain.c **** {
  18:Src/txChain.c **** 	// Ensure RF Enabled
  19:Src/txChain.c **** 	max2871RFEnable(max2871Status);
  20:Src/txChain.c **** 	enablePA(txStatus);
  21:Src/txChain.c **** 
  22:Src/txChain.c **** 	max2871SetFrequency(frequency,FRAC_N,max2871Status);
  23:Src/txChain.c **** 	stpSpiTx(freqToLed(frequency));
  24:Src/txChain.c **** 
  25:Src/txChain.c **** 	while (!max2871CheckLD(max2871Status));
  26:Src/txChain.c **** 	// Don't go any further until PLL has lock
  27:Src/txChain.c **** 
  28:Src/txChain.c **** 	setOutputPower(power, max2871Status, txStatus);
  29:Src/txChain.c **** }
  30:Src/txChain.c **** 
  31:Src/txChain.c **** // Sweeps through frequencies
ARM GAS  /tmp/ccBlGcgZ.s 			page 2


  32:Src/txChain.c **** void sweep(float lowerFreq, float higherFreq, float numSteps, float power, float sweepTime, struct 
  33:Src/txChain.c **** {
  34:Src/txChain.c **** 	float stepSize = ((higherFreq - lowerFreq) / numSteps);
  35:Src/txChain.c **** 	uint32_t delay = sweepTime * 1000000 / numSteps; 	// Delay is in uS
  36:Src/txChain.c **** 
  37:Src/txChain.c **** 	float currentFrequency = lowerFreq;
  38:Src/txChain.c **** 
  39:Src/txChain.c **** 	while (currentFrequency <= higherFreq)
  40:Src/txChain.c **** 	{
  41:Src/txChain.c **** 		sigGen(currentFrequency, power, max2871Status, txStatus);
  42:Src/txChain.c **** 		DWT_Delay_us(delay);
  43:Src/txChain.c **** 		currentFrequency += stepSize;
  44:Src/txChain.c **** 
  45:Src/txChain.c **** 	}
  46:Src/txChain.c **** }
  47:Src/txChain.c **** 
  48:Src/txChain.c **** void txChainInit(struct MAX2871Struct *max2871Status, struct txStruct *txStatus)
  49:Src/txChain.c **** {
  50:Src/txChain.c **** 	max2871RFDisable(max2871Status);
  51:Src/txChain.c **** 	disablePA(txStatus);
  52:Src/txChain.c **** 	setAttenuation(MAX_ATTENUATION,txStatus);
  53:Src/txChain.c **** 	max2871Setup(max2871Status);
  54:Src/txChain.c **** }
  55:Src/txChain.c **** 
  56:Src/txChain.c **** // Sets attenuation for a SKY12347 attenuator
  57:Src/txChain.c **** void setAttenuation(float atten, struct txStruct *txStatus)
  58:Src/txChain.c **** {
  28              		.loc 1 58 0
  29              		.cfi_startproc
  30              		@ args = 0, pretend = 0, frame = 0
  31              		@ frame_needed = 0, uses_anonymous_args = 0
  32              	.LVL0:
  33 0000 70B5     		push	{r4, r5, r6, lr}
  34              	.LCFI0:
  35              		.cfi_def_cfa_offset 16
  36              		.cfi_offset 4, -16
  37              		.cfi_offset 5, -12
  38              		.cfi_offset 6, -8
  39              		.cfi_offset 14, -4
  59:Src/txChain.c **** 	// Convert given attenuation value to the 8 bits which SKY12347 wants
  60:Src/txChain.c **** 	txStatus->attenuation = atten;
  40              		.loc 1 60 0
  41 0002 8860     		str	r0, [r1, #8]	@ float
  61:Src/txChain.c **** 	uint8_t bitSequence = (atten * 4);
  42              		.loc 1 61 0
  43 0004 4FF08141 		mov	r1, #1082130432
  44              	.LVL1:
  45 0008 FFF7FEFF 		bl	__aeabi_fmul
  46              	.LVL2:
  47 000c FFF7FEFF 		bl	__aeabi_f2uiz
  48              	.LVL3:
  49 0010 C6B2     		uxtb	r6, r0
  50              	.LVL4:
  62:Src/txChain.c **** 	bitSequence = ~bitSequence;
  51              		.loc 1 62 0
  52 0012 F643     		mvns	r6, r6
  53              	.LVL5:
ARM GAS  /tmp/ccBlGcgZ.s 			page 3


  54 0014 F6B2     		uxtb	r6, r6
  55              	.LVL6:
  63:Src/txChain.c **** 
  64:Src/txChain.c **** 	// Init attenuator LE high
  65:Src/txChain.c **** 	HAL_GPIO_WritePin(ATTEN_LE_GPIO_Port,ATTEN_LE_Pin,1);
  56              		.loc 1 65 0
  57 0016 0122     		movs	r2, #1
  58 0018 4021     		movs	r1, #64
  59 001a 3748     		ldr	r0, .L10
  60 001c FFF7FEFF 		bl	HAL_GPIO_WritePin
  61              	.LVL7:
  62 0020 0A24     		movs	r4, #10
  63              	.LVL8:
  64              	.LBB13:
  65              	.LBB14:
  66              		.file 2 "Inc/dwt_stm32_delay.h"
   1:Inc/dwt_stm32_delay.h **** #ifndef DWT_STM32_DELAY_H
   2:Inc/dwt_stm32_delay.h **** #define DWT_STM32_DELAY_H
   3:Inc/dwt_stm32_delay.h **** 
   4:Inc/dwt_stm32_delay.h **** #ifdef __cplusplus
   5:Inc/dwt_stm32_delay.h **** extern "C" {
   6:Inc/dwt_stm32_delay.h **** #endif
   7:Inc/dwt_stm32_delay.h **** 
   8:Inc/dwt_stm32_delay.h **** #include "stm32f1xx_hal.h"
   9:Inc/dwt_stm32_delay.h **** 
  10:Inc/dwt_stm32_delay.h **** /**
  11:Inc/dwt_stm32_delay.h ****  * @brief  Initializes DWT_Cycle_Count for DWT_Delay_us function
  12:Inc/dwt_stm32_delay.h ****  * @return Error DWT counter
  13:Inc/dwt_stm32_delay.h ****  *         1: DWT counter Error
  14:Inc/dwt_stm32_delay.h ****  *         0: DWT counter works
  15:Inc/dwt_stm32_delay.h ****  */
  16:Inc/dwt_stm32_delay.h **** uint32_t DWT_Delay_Init(void);
  17:Inc/dwt_stm32_delay.h **** 
  18:Inc/dwt_stm32_delay.h **** /**
  19:Inc/dwt_stm32_delay.h ****  * @brief  This function provides a delay (in microseconds)
  20:Inc/dwt_stm32_delay.h ****  * @param  microseconds: delay in microseconds
  21:Inc/dwt_stm32_delay.h ****  */
  22:Inc/dwt_stm32_delay.h **** __STATIC_INLINE void DWT_Delay_us(volatile uint32_t microseconds)
  23:Inc/dwt_stm32_delay.h **** {
  24:Inc/dwt_stm32_delay.h ****   uint32_t clk_cycle_start = DWT->CYCCNT;
  67              		.loc 2 24 0
  68 0022 364B     		ldr	r3, .L10+4
  69 0024 5D68     		ldr	r5, [r3, #4]
  70              	.LVL9:
  25:Inc/dwt_stm32_delay.h **** 
  26:Inc/dwt_stm32_delay.h ****   /* Go to number of cycles for system */
  27:Inc/dwt_stm32_delay.h ****   microseconds *= (HAL_RCC_GetHCLKFreq() / 1000000);
  71              		.loc 2 27 0
  72 0026 FFF7FEFF 		bl	HAL_RCC_GetHCLKFreq
  73              	.LVL10:
  74 002a 354B     		ldr	r3, .L10+8
  75 002c A3FB0023 		umull	r2, r3, r3, r0
  76 0030 9B0C     		lsrs	r3, r3, #18
  77 0032 04FB03F4 		mul	r4, r4, r3
  78              	.L2:
  28:Inc/dwt_stm32_delay.h **** 
  29:Inc/dwt_stm32_delay.h ****   /* Delay till end */
ARM GAS  /tmp/ccBlGcgZ.s 			page 4


  30:Inc/dwt_stm32_delay.h ****   while ((DWT->CYCCNT - clk_cycle_start) < microseconds);
  79              		.loc 2 30 0
  80 0036 314B     		ldr	r3, .L10+4
  81 0038 5B68     		ldr	r3, [r3, #4]
  82 003a 5B1B     		subs	r3, r3, r5
  83 003c A342     		cmp	r3, r4
  84 003e FAD3     		bcc	.L2
  85              	.LVL11:
  86              	.LBE14:
  87              	.LBE13:
  66:Src/txChain.c **** 	DWT_Delay_us(10);
  67:Src/txChain.c **** 	// Begin by bringing LE low
  68:Src/txChain.c **** 	HAL_GPIO_WritePin(ATTEN_LE_GPIO_Port, ATTEN_LE_Pin, 0);
  88              		.loc 1 68 0
  89 0040 0022     		movs	r2, #0
  90 0042 4021     		movs	r1, #64
  91 0044 2C48     		ldr	r0, .L10
  92 0046 FFF7FEFF 		bl	HAL_GPIO_WritePin
  93              	.LVL12:
  94              	.LBB15:
  95              	.LBB16:
  24:Inc/dwt_stm32_delay.h **** 
  96              		.loc 2 24 0
  97 004a 2C4B     		ldr	r3, .L10+4
  98 004c 5C68     		ldr	r4, [r3, #4]
  99              	.LVL13:
  27:Inc/dwt_stm32_delay.h **** 
 100              		.loc 2 27 0
 101 004e FFF7FEFF 		bl	HAL_RCC_GetHCLKFreq
 102              	.LVL14:
 103 0052 2B4A     		ldr	r2, .L10+8
 104 0054 A2FB0032 		umull	r3, r2, r2, r0
 105 0058 920C     		lsrs	r2, r2, #18
 106              	.L3:
 107              		.loc 2 30 0
 108 005a 284B     		ldr	r3, .L10+4
 109 005c 5B68     		ldr	r3, [r3, #4]
 110 005e 1B1B     		subs	r3, r3, r4
 111 0060 9342     		cmp	r3, r2
 112 0062 FAD3     		bcc	.L3
 113              	.LBE16:
 114              	.LBE15:
 115              	.LBB17:
  69:Src/txChain.c **** 	DWT_Delay_us(1);
  70:Src/txChain.c **** 
  71:Src/txChain.c **** 	// Transfer the bits
  72:Src/txChain.c **** 	for (uint8_t i = 6; i > 0 ; i--)
 116              		.loc 1 72 0
 117 0064 0625     		movs	r5, #6
 118 0066 2DE0     		b	.L4
 119              	.LVL15:
 120              	.L7:
  73:Src/txChain.c **** 	{
  74:Src/txChain.c **** 		HAL_GPIO_WritePin(ATTEN_SDO_GPIO_Port, ATTEN_SDO_Pin, bitSequence & (1 << i));
 121              		.loc 1 74 0 discriminator 3
 122 0068 0124     		movs	r4, #1
 123 006a 04FA05F2 		lsl	r2, r4, r5
ARM GAS  /tmp/ccBlGcgZ.s 			page 5


 124 006e 3240     		ands	r2, r2, r6
 125 0070 8021     		movs	r1, #128
 126 0072 2148     		ldr	r0, .L10
 127 0074 FFF7FEFF 		bl	HAL_GPIO_WritePin
 128              	.LVL16:
 129              	.LBB18:
 130              	.LBB19:
  24:Inc/dwt_stm32_delay.h **** 
 131              		.loc 2 24 0 discriminator 3
 132 0078 204B     		ldr	r3, .L10+4
 133 007a 5C68     		ldr	r4, [r3, #4]
 134              	.LVL17:
  27:Inc/dwt_stm32_delay.h **** 
 135              		.loc 2 27 0 discriminator 3
 136 007c FFF7FEFF 		bl	HAL_RCC_GetHCLKFreq
 137              	.LVL18:
 138 0080 1F4B     		ldr	r3, .L10+8
 139 0082 A3FB0030 		umull	r3, r0, r3, r0
 140 0086 800C     		lsrs	r0, r0, #18
 141              	.L5:
 142              		.loc 2 30 0
 143 0088 1C4B     		ldr	r3, .L10+4
 144 008a 5B68     		ldr	r3, [r3, #4]
 145 008c 1B1B     		subs	r3, r3, r4
 146 008e 8342     		cmp	r3, r0
 147 0090 FAD3     		bcc	.L5
 148              	.LVL19:
 149              	.LBE19:
 150              	.LBE18:
  75:Src/txChain.c **** 		DWT_Delay_us(1);
  76:Src/txChain.c **** 		HAL_GPIO_WritePin(ATTEN_CLK_GPIO_Port, ATTEN_CLK_Pin, 1);
 151              		.loc 1 76 0 discriminator 3
 152 0092 0122     		movs	r2, #1
 153 0094 1146     		mov	r1, r2
 154 0096 1B48     		ldr	r0, .L10+12
 155 0098 FFF7FEFF 		bl	HAL_GPIO_WritePin
 156              	.LVL20:
 157              	.LBB20:
 158              	.LBB21:
  24:Inc/dwt_stm32_delay.h **** 
 159              		.loc 2 24 0 discriminator 3
 160 009c 174B     		ldr	r3, .L10+4
 161 009e 5C68     		ldr	r4, [r3, #4]
 162              	.LVL21:
  27:Inc/dwt_stm32_delay.h **** 
 163              		.loc 2 27 0 discriminator 3
 164 00a0 FFF7FEFF 		bl	HAL_RCC_GetHCLKFreq
 165              	.LVL22:
 166 00a4 164B     		ldr	r3, .L10+8
 167 00a6 A3FB0030 		umull	r3, r0, r3, r0
 168 00aa 800C     		lsrs	r0, r0, #18
 169              	.L6:
 170              		.loc 2 30 0
 171 00ac 134B     		ldr	r3, .L10+4
 172 00ae 5B68     		ldr	r3, [r3, #4]
 173 00b0 1B1B     		subs	r3, r3, r4
 174 00b2 8342     		cmp	r3, r0
ARM GAS  /tmp/ccBlGcgZ.s 			page 6


 175 00b4 FAD3     		bcc	.L6
 176              	.LVL23:
 177              	.LBE21:
 178              	.LBE20:
  77:Src/txChain.c **** 		DWT_Delay_us(1);
  78:Src/txChain.c **** 		HAL_GPIO_WritePin(ATTEN_CLK_GPIO_Port, ATTEN_CLK_Pin, 0);
 179              		.loc 1 78 0 discriminator 3
 180 00b6 0022     		movs	r2, #0
 181 00b8 0121     		movs	r1, #1
 182 00ba 1248     		ldr	r0, .L10+12
 183 00bc FFF7FEFF 		bl	HAL_GPIO_WritePin
 184              	.LVL24:
  72:Src/txChain.c **** 	{
 185              		.loc 1 72 0 discriminator 3
 186 00c0 013D     		subs	r5, r5, #1
 187              	.LVL25:
 188 00c2 EDB2     		uxtb	r5, r5
 189              	.LVL26:
 190              	.L4:
  72:Src/txChain.c **** 	{
 191              		.loc 1 72 0 is_stmt 0 discriminator 1
 192 00c4 002D     		cmp	r5, #0
 193 00c6 CFD1     		bne	.L7
 194              	.LBE17:
  79:Src/txChain.c **** 	}
  80:Src/txChain.c **** 	HAL_GPIO_WritePin(ATTEN_SDO_GPIO_Port, ATTEN_SDO_Pin, 0);
 195              		.loc 1 80 0 is_stmt 1
 196 00c8 0022     		movs	r2, #0
 197 00ca 8021     		movs	r1, #128
 198 00cc 0A48     		ldr	r0, .L10
 199 00ce FFF7FEFF 		bl	HAL_GPIO_WritePin
 200              	.LVL27:
 201              	.LBB22:
 202              	.LBB23:
  24:Inc/dwt_stm32_delay.h **** 
 203              		.loc 2 24 0
 204 00d2 0A4B     		ldr	r3, .L10+4
 205 00d4 5C68     		ldr	r4, [r3, #4]
 206              	.LVL28:
  27:Inc/dwt_stm32_delay.h **** 
 207              		.loc 2 27 0
 208 00d6 FFF7FEFF 		bl	HAL_RCC_GetHCLKFreq
 209              	.LVL29:
 210 00da 094A     		ldr	r2, .L10+8
 211 00dc A2FB0032 		umull	r3, r2, r2, r0
 212 00e0 920C     		lsrs	r2, r2, #18
 213              	.L8:
 214              		.loc 2 30 0
 215 00e2 064B     		ldr	r3, .L10+4
 216 00e4 5B68     		ldr	r3, [r3, #4]
 217 00e6 1B1B     		subs	r3, r3, r4
 218 00e8 9342     		cmp	r3, r2
 219 00ea FAD3     		bcc	.L8
 220              	.LVL30:
 221              	.LBE23:
 222              	.LBE22:
  81:Src/txChain.c **** 	// Shift data in by bringing LE high
ARM GAS  /tmp/ccBlGcgZ.s 			page 7


  82:Src/txChain.c **** 	DWT_Delay_us(1);
  83:Src/txChain.c **** 	HAL_GPIO_WritePin(ATTEN_LE_GPIO_Port, ATTEN_LE_Pin, 1);
 223              		.loc 1 83 0
 224 00ec 0122     		movs	r2, #1
 225 00ee 4021     		movs	r1, #64
 226 00f0 0148     		ldr	r0, .L10
 227 00f2 FFF7FEFF 		bl	HAL_GPIO_WritePin
 228              	.LVL31:
  84:Src/txChain.c **** }
 229              		.loc 1 84 0
 230 00f6 70BD     		pop	{r4, r5, r6, pc}
 231              	.LVL32:
 232              	.L11:
 233              		.align	2
 234              	.L10:
 235 00f8 00080140 		.word	1073809408
 236 00fc 001000E0 		.word	-536866816
 237 0100 83DE1B43 		.word	1125899907
 238 0104 000C0140 		.word	1073810432
 239              		.cfi_endproc
 240              	.LFE72:
 242              		.global	__aeabi_ui2d
 243              		.global	__aeabi_dmul
 244              		.global	__aeabi_d2f
 245              		.global	__aeabi_f2d
 246              		.global	__aeabi_dadd
 247              		.section	.text.readAD8319,"ax",%progbits
 248              		.align	1
 249              		.global	readAD8319
 250              		.syntax unified
 251              		.thumb
 252              		.thumb_func
 253              		.fpu softvfp
 255              	readAD8319:
 256              	.LFB74:
  85:Src/txChain.c **** 
  86:Src/txChain.c **** // Very simple control of attenuator to set desired output power.
  87:Src/txChain.c **** // Changes attenuation until AD8319 reads correct value or runs out of attenuation.
  88:Src/txChain.c **** void setOutputPower(float setPower, struct MAX2871Struct *max2871Status, struct txStruct *txStatus)
  89:Src/txChain.c **** {
  90:Src/txChain.c **** 	if (setPower >= 0)
  91:Src/txChain.c **** 		max2871SetPower(5, max2871Status);
  92:Src/txChain.c **** 	else
  93:Src/txChain.c **** 		max2871SetPower(-4, max2871Status);
  94:Src/txChain.c **** 
  95:Src/txChain.c **** 	txStatus->setOutputPower = setPower;
  96:Src/txChain.c **** 	readAD8319(txStatus);
  97:Src/txChain.c **** 
  98:Src/txChain.c **** 	// If power too high
  99:Src/txChain.c **** 	if (txStatus->measOutputPower > (txStatus->setOutputPower + STEP_ATTENUATION / 2))
 100:Src/txChain.c **** 	{
 101:Src/txChain.c **** 		// While power too high
 102:Src/txChain.c **** 		while (txStatus->measOutputPower > (txStatus->setOutputPower + STEP_ATTENUATION / 2))
 103:Src/txChain.c **** 		{
 104:Src/txChain.c **** 			if (txStatus->attenuation < MAX_ATTENUATION)
 105:Src/txChain.c **** 			{
 106:Src/txChain.c **** 				setAttenuation(txStatus->attenuation += STEP_ATTENUATION, txStatus);
ARM GAS  /tmp/ccBlGcgZ.s 			page 8


 107:Src/txChain.c **** 				DWT_Delay_us(1);
 108:Src/txChain.c **** 				readAD8319(txStatus);
 109:Src/txChain.c **** 			}
 110:Src/txChain.c **** 			else
 111:Src/txChain.c **** 			{
 112:Src/txChain.c **** 				printUSB((char *) "> Ran out of attenuation!\r\n");
 113:Src/txChain.c **** 				break;
 114:Src/txChain.c **** 			}
 115:Src/txChain.c **** 		}
 116:Src/txChain.c **** 	}
 117:Src/txChain.c **** 	// If power too low
 118:Src/txChain.c **** 	else if (txStatus->measOutputPower < (txStatus->setOutputPower - STEP_ATTENUATION / 2))
 119:Src/txChain.c **** 	{
 120:Src/txChain.c **** 		// While power too low
 121:Src/txChain.c **** 		while (txStatus->measOutputPower < (txStatus->setOutputPower - STEP_ATTENUATION / 2))
 122:Src/txChain.c **** 		{
 123:Src/txChain.c **** 			if (txStatus->attenuation > MIN_ATTENUATION)
 124:Src/txChain.c **** 			{
 125:Src/txChain.c **** 				setAttenuation(txStatus->attenuation -= STEP_ATTENUATION, txStatus);
 126:Src/txChain.c **** 				DWT_Delay_us(1);
 127:Src/txChain.c **** 				readAD8319(txStatus);
 128:Src/txChain.c **** 			}
 129:Src/txChain.c **** 			else
 130:Src/txChain.c **** 			{
 131:Src/txChain.c **** 				printUSB((char *) "> Ran out of attenuation!\r\n");
 132:Src/txChain.c **** 				break;
 133:Src/txChain.c **** 			}
 134:Src/txChain.c **** 		}
 135:Src/txChain.c **** 	}
 136:Src/txChain.c **** 
 137:Src/txChain.c **** }
 138:Src/txChain.c **** 
 139:Src/txChain.c **** // Sets power value in the txStatus struct
 140:Src/txChain.c **** // Accounts for losses before AD8319, however need to confirm through measurements
 141:Src/txChain.c **** // Returns voltage measured from the AD8319
 142:Src/txChain.c **** float readAD8319(struct txStruct *txStatus)
 143:Src/txChain.c **** {
 257              		.loc 1 143 0
 258              		.cfi_startproc
 259              		@ args = 0, pretend = 0, frame = 0
 260              		@ frame_needed = 0, uses_anonymous_args = 0
 261              	.LVL33:
 262 0000 70B5     		push	{r4, r5, r6, lr}
 263              	.LCFI1:
 264              		.cfi_def_cfa_offset 16
 265              		.cfi_offset 4, -16
 266              		.cfi_offset 5, -12
 267              		.cfi_offset 6, -8
 268              		.cfi_offset 14, -4
 269 0002 0646     		mov	r6, r0
 270              	.LVL34:
 271              	.LBB24:
 144:Src/txChain.c **** 	float voltage, power;
 145:Src/txChain.c **** 	uint32_t adcValue = 0;
 146:Src/txChain.c **** 	uint32_t ch;
 147:Src/txChain.c **** 	uint16_t retVal;
 148:Src/txChain.c **** 
ARM GAS  /tmp/ccBlGcgZ.s 			page 9


 149:Src/txChain.c **** 
 150:Src/txChain.c **** 	// Get a 8 sample average of the ADC data
 151:Src/txChain.c **** 	for (uint8_t i = 8; i > 0; i--)
 272              		.loc 1 151 0
 273 0004 0824     		movs	r4, #8
 274              	.LBE24:
 145:Src/txChain.c **** 	uint32_t ch;
 275              		.loc 1 145 0
 276 0006 0025     		movs	r5, #0
 277              	.LBB25:
 278              		.loc 1 151 0
 279 0008 04E0     		b	.L13
 280              	.LVL35:
 281              	.L15:
 152:Src/txChain.c **** 	{
 153:Src/txChain.c **** 		while(HAL_ADC_PollForConversion(&hadc1, 1000) != HAL_OK)
 154:Src/txChain.c **** 		{
 155:Src/txChain.c **** 			// Wait
 156:Src/txChain.c **** 		}
 157:Src/txChain.c **** 
 158:Src/txChain.c **** 		if(HAL_ADC_PollForConversion(&hadc1, 1000) == HAL_OK)
 159:Src/txChain.c **** 		{
 160:Src/txChain.c **** 			adcValue += HAL_ADC_GetValue(&hadc1);
 161:Src/txChain.c **** 		}
 162:Src/txChain.c **** 		HAL_Delay(1);
 282              		.loc 1 162 0 discriminator 2
 283 000a 0120     		movs	r0, #1
 284 000c FFF7FEFF 		bl	HAL_Delay
 285              	.LVL36:
 151:Src/txChain.c **** 	{
 286              		.loc 1 151 0 discriminator 2
 287 0010 013C     		subs	r4, r4, #1
 288              	.LVL37:
 289 0012 E4B2     		uxtb	r4, r4
 290              	.LVL38:
 291              	.L13:
 151:Src/txChain.c **** 	{
 292              		.loc 1 151 0 is_stmt 0 discriminator 1
 293 0014 94B1     		cbz	r4, .L17
 294              	.L14:
 153:Src/txChain.c **** 		{
 295              		.loc 1 153 0 is_stmt 1 discriminator 1
 296 0016 4FF47A71 		mov	r1, #1000
 297 001a 1D48     		ldr	r0, .L18+16
 298 001c FFF7FEFF 		bl	HAL_ADC_PollForConversion
 299              	.LVL39:
 300 0020 0028     		cmp	r0, #0
 301 0022 F8D1     		bne	.L14
 158:Src/txChain.c **** 		{
 302              		.loc 1 158 0
 303 0024 4FF47A71 		mov	r1, #1000
 304 0028 1948     		ldr	r0, .L18+16
 305 002a FFF7FEFF 		bl	HAL_ADC_PollForConversion
 306              	.LVL40:
 307 002e 0028     		cmp	r0, #0
 308 0030 EBD1     		bne	.L15
 160:Src/txChain.c **** 		}
ARM GAS  /tmp/ccBlGcgZ.s 			page 10


 309              		.loc 1 160 0
 310 0032 1748     		ldr	r0, .L18+16
 311 0034 FFF7FEFF 		bl	HAL_ADC_GetValue
 312              	.LVL41:
 313 0038 0544     		add	r5, r5, r0
 314              	.LVL42:
 315 003a E6E7     		b	.L15
 316              	.L17:
 317              	.LVL43:
 318              	.LBE25:
 163:Src/txChain.c **** 	}
 164:Src/txChain.c **** 
 165:Src/txChain.c **** 	adcValue /= 8; // Divide by 8 to get average value
 166:Src/txChain.c **** 
 167:Src/txChain.c **** 	voltage = (VREF * adcValue) / NUM_STATES_12_BIT;	// Convert to voltage
 319              		.loc 1 167 0
 320 003c E808     		lsrs	r0, r5, #3
 321              	.LVL44:
 322 003e FFF7FEFF 		bl	__aeabi_ui2d
 323              	.LVL45:
 324 0042 0FA3     		adr	r3, .L18
 325 0044 D3E90023 		ldrd	r2, [r3]
 326 0048 FFF7FEFF 		bl	__aeabi_dmul
 327              	.LVL46:
 328 004c 0022     		movs	r2, #0
 329 004e 114B     		ldr	r3, .L18+20
 330 0050 FFF7FEFF 		bl	__aeabi_dmul
 331              	.LVL47:
 332 0054 FFF7FEFF 		bl	__aeabi_d2f
 333              	.LVL48:
 334 0058 0446     		mov	r4, r0
 335              	.LVL49:
 168:Src/txChain.c **** 
 169:Src/txChain.c **** 	power = -44.4 * voltage + 33; 				// Voltage to power at SMA
 336              		.loc 1 169 0
 337 005a FFF7FEFF 		bl	__aeabi_f2d
 338              	.LVL50:
 339 005e 0AA3     		adr	r3, .L18+8
 340 0060 D3E90023 		ldrd	r2, [r3]
 341 0064 FFF7FEFF 		bl	__aeabi_dmul
 342              	.LVL51:
 343 0068 0022     		movs	r2, #0
 344 006a 0B4B     		ldr	r3, .L18+24
 345 006c FFF7FEFF 		bl	__aeabi_dadd
 346              	.LVL52:
 347 0070 FFF7FEFF 		bl	__aeabi_d2f
 348              	.LVL53:
 170:Src/txChain.c **** 
 171:Src/txChain.c **** 	txStatus->measOutputPower = power;
 349              		.loc 1 171 0
 350 0074 3060     		str	r0, [r6]	@ float
 172:Src/txChain.c **** 
 173:Src/txChain.c **** 	return voltage;
 174:Src/txChain.c **** }
 351              		.loc 1 174 0
 352 0076 2046     		mov	r0, r4
 353              	.LVL54:
ARM GAS  /tmp/ccBlGcgZ.s 			page 11


 354 0078 70BD     		pop	{r4, r5, r6, pc}
 355              	.LVL55:
 356              	.L19:
 357 007a 00BFAFF3 		.align	3
 357      0080
 358              	.L18:
 359 0080 66666666 		.word	1717986918
 360 0084 66660A40 		.word	1074423398
 361 0088 33333333 		.word	858993459
 362 008c 333346C0 		.word	-1069141197
 363 0090 00000000 		.word	hadc1
 364 0094 0000303F 		.word	1060110336
 365 0098 00804040 		.word	1077968896
 366              		.cfi_endproc
 367              	.LFE74:
 369              		.global	__aeabi_fcmpge
 370              		.global	__aeabi_dcmpgt
 371              		.global	__aeabi_fcmplt
 372              		.global	__aeabi_fadd
 373              		.global	__aeabi_dsub
 374              		.global	__aeabi_dcmplt
 375              		.global	__aeabi_fcmpgt
 376              		.global	__aeabi_fsub
 377              		.section	.text.setOutputPower,"ax",%progbits
 378              		.align	1
 379              		.global	setOutputPower
 380              		.syntax unified
 381              		.thumb
 382              		.thumb_func
 383              		.fpu softvfp
 385              	setOutputPower:
 386              	.LFB73:
  89:Src/txChain.c **** 	if (setPower >= 0)
 387              		.loc 1 89 0
 388              		.cfi_startproc
 389              		@ args = 0, pretend = 0, frame = 0
 390              		@ frame_needed = 0, uses_anonymous_args = 0
 391              	.LVL56:
 392 0000 2DE9F843 		push	{r3, r4, r5, r6, r7, r8, r9, lr}
 393              	.LCFI2:
 394              		.cfi_def_cfa_offset 32
 395              		.cfi_offset 3, -32
 396              		.cfi_offset 4, -28
 397              		.cfi_offset 5, -24
 398              		.cfi_offset 6, -20
 399              		.cfi_offset 7, -16
 400              		.cfi_offset 8, -12
 401              		.cfi_offset 9, -8
 402              		.cfi_offset 14, -4
 403 0004 0546     		mov	r5, r0
 404 0006 0E46     		mov	r6, r1
 405 0008 1446     		mov	r4, r2
  90:Src/txChain.c **** 		max2871SetPower(5, max2871Status);
 406              		.loc 1 90 0
 407 000a 0021     		movs	r1, #0
 408              	.LVL57:
 409 000c FFF7FEFF 		bl	__aeabi_fcmpge
ARM GAS  /tmp/ccBlGcgZ.s 			page 12


 410              	.LVL58:
 411 0010 0028     		cmp	r0, #0
 412 0012 5FD0     		beq	.L39
  91:Src/txChain.c **** 	else
 413              		.loc 1 91 0
 414 0014 3146     		mov	r1, r6
 415 0016 0520     		movs	r0, #5
 416 0018 FFF7FEFF 		bl	max2871SetPower
 417              	.LVL59:
 418              	.L23:
  95:Src/txChain.c **** 	readAD8319(txStatus);
 419              		.loc 1 95 0
 420 001c 6560     		str	r5, [r4, #4]	@ float
  96:Src/txChain.c **** 
 421              		.loc 1 96 0
 422 001e 2046     		mov	r0, r4
 423 0020 FFF7FEFF 		bl	readAD8319
 424              	.LVL60:
  99:Src/txChain.c **** 	{
 425              		.loc 1 99 0
 426 0024 2068     		ldr	r0, [r4]	@ float
 427 0026 FFF7FEFF 		bl	__aeabi_f2d
 428              	.LVL61:
 429 002a 0646     		mov	r6, r0
 430              	.LVL62:
 431 002c 0F46     		mov	r7, r1
 432 002e 6068     		ldr	r0, [r4, #4]	@ float
 433 0030 FFF7FEFF 		bl	__aeabi_f2d
 434              	.LVL63:
 435 0034 8046     		mov	r8, r0
 436 0036 8946     		mov	r9, r1
 437 0038 0022     		movs	r2, #0
 438 003a 484B     		ldr	r3, .L44
 439 003c FFF7FEFF 		bl	__aeabi_dadd
 440              	.LVL64:
 441 0040 0246     		mov	r2, r0
 442 0042 0B46     		mov	r3, r1
 443 0044 3046     		mov	r0, r6
 444 0046 3946     		mov	r1, r7
 445 0048 FFF7FEFF 		bl	__aeabi_dcmpgt
 446              	.LVL65:
 447 004c 0028     		cmp	r0, #0
 448 004e 4CD1     		bne	.L24
 118:Src/txChain.c **** 	{
 449              		.loc 1 118 0
 450 0050 0022     		movs	r2, #0
 451 0052 424B     		ldr	r3, .L44
 452 0054 4046     		mov	r0, r8
 453 0056 4946     		mov	r1, r9
 454 0058 FFF7FEFF 		bl	__aeabi_dsub
 455              	.LVL66:
 456 005c 0246     		mov	r2, r0
 457 005e 0B46     		mov	r3, r1
 458 0060 3046     		mov	r0, r6
 459 0062 3946     		mov	r1, r7
 460 0064 FFF7FEFF 		bl	__aeabi_dcmplt
 461              	.LVL67:
ARM GAS  /tmp/ccBlGcgZ.s 			page 13


 462 0068 0028     		cmp	r0, #0
 463 006a 3CD0     		beq	.L20
 464              	.LVL68:
 465              	.L31:
 121:Src/txChain.c **** 		{
 466              		.loc 1 121 0
 467 006c 2068     		ldr	r0, [r4]	@ float
 468 006e FFF7FEFF 		bl	__aeabi_f2d
 469              	.LVL69:
 470 0072 0646     		mov	r6, r0
 471 0074 0F46     		mov	r7, r1
 472 0076 6068     		ldr	r0, [r4, #4]	@ float
 473 0078 FFF7FEFF 		bl	__aeabi_f2d
 474              	.LVL70:
 475 007c 0022     		movs	r2, #0
 476 007e 374B     		ldr	r3, .L44
 477 0080 FFF7FEFF 		bl	__aeabi_dsub
 478              	.LVL71:
 479 0084 0246     		mov	r2, r0
 480 0086 0B46     		mov	r3, r1
 481 0088 3046     		mov	r0, r6
 482 008a 3946     		mov	r1, r7
 483 008c FFF7FEFF 		bl	__aeabi_dcmplt
 484              	.LVL72:
 485 0090 48B3     		cbz	r0, .L20
 123:Src/txChain.c **** 			{
 486              		.loc 1 123 0
 487 0092 A568     		ldr	r5, [r4, #8]	@ float
 488 0094 0021     		movs	r1, #0
 489 0096 2846     		mov	r0, r5
 490 0098 FFF7FEFF 		bl	__aeabi_fcmpgt
 491              	.LVL73:
 492 009c 0028     		cmp	r0, #0
 493 009e 59D0     		beq	.L42
 125:Src/txChain.c **** 				DWT_Delay_us(1);
 494              		.loc 1 125 0
 495 00a0 4FF07C51 		mov	r1, #1056964608
 496 00a4 2846     		mov	r0, r5
 497 00a6 FFF7FEFF 		bl	__aeabi_fsub
 498              	.LVL74:
 499 00aa A060     		str	r0, [r4, #8]	@ float
 500 00ac 2146     		mov	r1, r4
 501 00ae FFF7FEFF 		bl	setAttenuation
 502              	.LVL75:
 503              	.LBB30:
 504              	.LBB31:
  24:Inc/dwt_stm32_delay.h **** 
 505              		.loc 2 24 0
 506 00b2 2B4B     		ldr	r3, .L44+4
 507 00b4 5D68     		ldr	r5, [r3, #4]
 508              	.LVL76:
  27:Inc/dwt_stm32_delay.h **** 
 509              		.loc 2 27 0
 510 00b6 FFF7FEFF 		bl	HAL_RCC_GetHCLKFreq
 511              	.LVL77:
 512 00ba 2A4B     		ldr	r3, .L44+8
 513 00bc A3FB0030 		umull	r3, r0, r3, r0
ARM GAS  /tmp/ccBlGcgZ.s 			page 14


 514 00c0 800C     		lsrs	r0, r0, #18
 515              	.L34:
 516              		.loc 2 30 0
 517 00c2 274B     		ldr	r3, .L44+4
 518 00c4 5B68     		ldr	r3, [r3, #4]
 519 00c6 5B1B     		subs	r3, r3, r5
 520 00c8 8342     		cmp	r3, r0
 521 00ca FAD3     		bcc	.L34
 522              	.LVL78:
 523              	.LBE31:
 524              	.LBE30:
 127:Src/txChain.c **** 			}
 525              		.loc 1 127 0
 526 00cc 2046     		mov	r0, r4
 527 00ce FFF7FEFF 		bl	readAD8319
 528              	.LVL79:
 529 00d2 CBE7     		b	.L31
 530              	.LVL80:
 531              	.L39:
  93:Src/txChain.c **** 
 532              		.loc 1 93 0
 533 00d4 3146     		mov	r1, r6
 534 00d6 6FF00300 		mvn	r0, #3
 535 00da FFF7FEFF 		bl	max2871SetPower
 536              	.LVL81:
 537 00de 9DE7     		b	.L23
 538              	.LVL82:
 539              	.L41:
 112:Src/txChain.c **** 				break;
 540              		.loc 1 112 0
 541 00e0 2148     		ldr	r0, .L44+12
 542 00e2 FFF7FEFF 		bl	printUSB
 543              	.LVL83:
 544              	.L20:
 137:Src/txChain.c **** 
 545              		.loc 1 137 0
 546 00e6 BDE8F883 		pop	{r3, r4, r5, r6, r7, r8, r9, pc}
 547              	.LVL84:
 548              	.L24:
 102:Src/txChain.c **** 		{
 549              		.loc 1 102 0
 550 00ea 2068     		ldr	r0, [r4]	@ float
 551 00ec FFF7FEFF 		bl	__aeabi_f2d
 552              	.LVL85:
 553 00f0 0646     		mov	r6, r0
 554 00f2 0F46     		mov	r7, r1
 555 00f4 6068     		ldr	r0, [r4, #4]	@ float
 556 00f6 FFF7FEFF 		bl	__aeabi_f2d
 557              	.LVL86:
 558 00fa 0022     		movs	r2, #0
 559 00fc 174B     		ldr	r3, .L44
 560 00fe FFF7FEFF 		bl	__aeabi_dadd
 561              	.LVL87:
 562 0102 0246     		mov	r2, r0
 563 0104 0B46     		mov	r3, r1
 564 0106 3046     		mov	r0, r6
 565 0108 3946     		mov	r1, r7
ARM GAS  /tmp/ccBlGcgZ.s 			page 15


 566 010a FFF7FEFF 		bl	__aeabi_dcmpgt
 567              	.LVL88:
 568 010e 0028     		cmp	r0, #0
 569 0110 E9D0     		beq	.L20
 104:Src/txChain.c **** 			{
 570              		.loc 1 104 0
 571 0112 A568     		ldr	r5, [r4, #8]	@ float
 572 0114 1549     		ldr	r1, .L44+16
 573 0116 2846     		mov	r0, r5
 574 0118 FFF7FEFF 		bl	__aeabi_fcmplt
 575              	.LVL89:
 576 011c 0028     		cmp	r0, #0
 577 011e DFD0     		beq	.L41
 106:Src/txChain.c **** 				DWT_Delay_us(1);
 578              		.loc 1 106 0
 579 0120 4FF07C51 		mov	r1, #1056964608
 580 0124 2846     		mov	r0, r5
 581 0126 FFF7FEFF 		bl	__aeabi_fadd
 582              	.LVL90:
 583 012a A060     		str	r0, [r4, #8]	@ float
 584 012c 2146     		mov	r1, r4
 585 012e FFF7FEFF 		bl	setAttenuation
 586              	.LVL91:
 587              	.LBB32:
 588              	.LBB33:
  24:Inc/dwt_stm32_delay.h **** 
 589              		.loc 2 24 0
 590 0132 0B4B     		ldr	r3, .L44+4
 591 0134 5D68     		ldr	r5, [r3, #4]
 592              	.LVL92:
  27:Inc/dwt_stm32_delay.h **** 
 593              		.loc 2 27 0
 594 0136 FFF7FEFF 		bl	HAL_RCC_GetHCLKFreq
 595              	.LVL93:
 596 013a 0A4B     		ldr	r3, .L44+8
 597 013c A3FB0030 		umull	r3, r0, r3, r0
 598 0140 800C     		lsrs	r0, r0, #18
 599              	.L28:
 600              		.loc 2 30 0
 601 0142 074B     		ldr	r3, .L44+4
 602 0144 5B68     		ldr	r3, [r3, #4]
 603 0146 5B1B     		subs	r3, r3, r5
 604 0148 8342     		cmp	r3, r0
 605 014a FAD3     		bcc	.L28
 606              	.LVL94:
 607              	.LBE33:
 608              	.LBE32:
 108:Src/txChain.c **** 			}
 609              		.loc 1 108 0
 610 014c 2046     		mov	r0, r4
 611 014e FFF7FEFF 		bl	readAD8319
 612              	.LVL95:
 613 0152 CAE7     		b	.L24
 614              	.L42:
 131:Src/txChain.c **** 				break;
 615              		.loc 1 131 0
 616 0154 0448     		ldr	r0, .L44+12
ARM GAS  /tmp/ccBlGcgZ.s 			page 16


 617 0156 FFF7FEFF 		bl	printUSB
 618              	.LVL96:
 132:Src/txChain.c **** 			}
 619              		.loc 1 132 0
 620 015a C4E7     		b	.L20
 621              	.L45:
 622              		.align	2
 623              	.L44:
 624 015c 0000D03F 		.word	1070596096
 625 0160 001000E0 		.word	-536866816
 626 0164 83DE1B43 		.word	1125899907
 627 0168 00000000 		.word	.LC0
 628 016c 0000FC41 		.word	1107034112
 629              		.cfi_endproc
 630              	.LFE73:
 632              		.section	.text.enablePA,"ax",%progbits
 633              		.align	1
 634              		.global	enablePA
 635              		.syntax unified
 636              		.thumb
 637              		.thumb_func
 638              		.fpu softvfp
 640              	enablePA:
 641              	.LFB75:
 175:Src/txChain.c **** 
 176:Src/txChain.c **** void enablePA(struct txStruct *txStatus)
 177:Src/txChain.c **** {
 642              		.loc 1 177 0
 643              		.cfi_startproc
 644              		@ args = 0, pretend = 0, frame = 0
 645              		@ frame_needed = 0, uses_anonymous_args = 0
 646              	.LVL97:
 647 0000 10B5     		push	{r4, lr}
 648              	.LCFI3:
 649              		.cfi_def_cfa_offset 8
 650              		.cfi_offset 4, -8
 651              		.cfi_offset 14, -4
 652 0002 0446     		mov	r4, r0
 178:Src/txChain.c **** 	HAL_GPIO_WritePin(PA_PWDN_GPIO_Port,PA_PWDN_Pin,0);
 653              		.loc 1 178 0
 654 0004 0022     		movs	r2, #0
 655 0006 4FF40071 		mov	r1, #512
 656 000a 0348     		ldr	r0, .L48
 657              	.LVL98:
 658 000c FFF7FEFF 		bl	HAL_GPIO_WritePin
 659              	.LVL99:
 179:Src/txChain.c **** 	txStatus->paPwdn = 0;
 660              		.loc 1 179 0
 661 0010 0023     		movs	r3, #0
 662 0012 2373     		strb	r3, [r4, #12]
 180:Src/txChain.c **** }
 663              		.loc 1 180 0
 664 0014 10BD     		pop	{r4, pc}
 665              	.LVL100:
 666              	.L49:
 667 0016 00BF     		.align	2
 668              	.L48:
ARM GAS  /tmp/ccBlGcgZ.s 			page 17


 669 0018 000C0140 		.word	1073810432
 670              		.cfi_endproc
 671              	.LFE75:
 673              		.section	.text.sigGen,"ax",%progbits
 674              		.align	1
 675              		.global	sigGen
 676              		.syntax unified
 677              		.thumb
 678              		.thumb_func
 679              		.fpu softvfp
 681              	sigGen:
 682              	.LFB69:
  17:Src/txChain.c **** 	// Ensure RF Enabled
 683              		.loc 1 17 0
 684              		.cfi_startproc
 685              		@ args = 0, pretend = 0, frame = 0
 686              		@ frame_needed = 0, uses_anonymous_args = 0
 687              	.LVL101:
 688 0000 F8B5     		push	{r3, r4, r5, r6, r7, lr}
 689              	.LCFI4:
 690              		.cfi_def_cfa_offset 24
 691              		.cfi_offset 3, -24
 692              		.cfi_offset 4, -20
 693              		.cfi_offset 5, -16
 694              		.cfi_offset 6, -12
 695              		.cfi_offset 7, -8
 696              		.cfi_offset 14, -4
 697 0002 0646     		mov	r6, r0
 698 0004 0F46     		mov	r7, r1
 699 0006 1446     		mov	r4, r2
 700 0008 1D46     		mov	r5, r3
  19:Src/txChain.c **** 	enablePA(txStatus);
 701              		.loc 1 19 0
 702 000a 1046     		mov	r0, r2
 703              	.LVL102:
 704 000c FFF7FEFF 		bl	max2871RFEnable
 705              	.LVL103:
  20:Src/txChain.c **** 
 706              		.loc 1 20 0
 707 0010 2846     		mov	r0, r5
 708 0012 FFF7FEFF 		bl	enablePA
 709              	.LVL104:
  22:Src/txChain.c **** 	stpSpiTx(freqToLed(frequency));
 710              		.loc 1 22 0
 711 0016 2246     		mov	r2, r4
 712 0018 0021     		movs	r1, #0
 713 001a 3046     		mov	r0, r6
 714 001c FFF7FEFF 		bl	max2871SetFrequency
 715              	.LVL105:
  23:Src/txChain.c **** 
 716              		.loc 1 23 0
 717 0020 3046     		mov	r0, r6
 718 0022 FFF7FEFF 		bl	freqToLed
 719              	.LVL106:
 720 0026 FFF7FEFF 		bl	stpSpiTx
 721              	.LVL107:
 722              	.L51:
ARM GAS  /tmp/ccBlGcgZ.s 			page 18


  25:Src/txChain.c **** 	// Don't go any further until PLL has lock
 723              		.loc 1 25 0 discriminator 1
 724 002a 2046     		mov	r0, r4
 725 002c FFF7FEFF 		bl	max2871CheckLD
 726              	.LVL108:
 727 0030 0028     		cmp	r0, #0
 728 0032 FAD0     		beq	.L51
  28:Src/txChain.c **** }
 729              		.loc 1 28 0
 730 0034 2A46     		mov	r2, r5
 731 0036 2146     		mov	r1, r4
 732 0038 3846     		mov	r0, r7
 733 003a FFF7FEFF 		bl	setOutputPower
 734              	.LVL109:
  29:Src/txChain.c **** 
 735              		.loc 1 29 0
 736 003e F8BD     		pop	{r3, r4, r5, r6, r7, pc}
 737              		.cfi_endproc
 738              	.LFE69:
 740              		.global	__aeabi_fdiv
 741              		.global	__aeabi_fcmple
 742              		.section	.text.sweep,"ax",%progbits
 743              		.align	1
 744              		.global	sweep
 745              		.syntax unified
 746              		.thumb
 747              		.thumb_func
 748              		.fpu softvfp
 750              	sweep:
 751              	.LFB70:
  33:Src/txChain.c **** 	float stepSize = ((higherFreq - lowerFreq) / numSteps);
 752              		.loc 1 33 0
 753              		.cfi_startproc
 754              		@ args = 12, pretend = 0, frame = 0
 755              		@ frame_needed = 0, uses_anonymous_args = 0
 756              	.LVL110:
 757 0000 2DE9F843 		push	{r3, r4, r5, r6, r7, r8, r9, lr}
 758              	.LCFI5:
 759              		.cfi_def_cfa_offset 32
 760              		.cfi_offset 3, -32
 761              		.cfi_offset 4, -28
 762              		.cfi_offset 5, -24
 763              		.cfi_offset 6, -20
 764              		.cfi_offset 7, -16
 765              		.cfi_offset 8, -12
 766              		.cfi_offset 9, -8
 767              		.cfi_offset 14, -4
 768 0004 0546     		mov	r5, r0
 769 0006 0F46     		mov	r7, r1
 770 0008 1446     		mov	r4, r2
 771 000a 9946     		mov	r9, r3
  34:Src/txChain.c **** 	uint32_t delay = sweepTime * 1000000 / numSteps; 	// Delay is in uS
 772              		.loc 1 34 0
 773 000c 0146     		mov	r1, r0
 774              	.LVL111:
 775 000e 3846     		mov	r0, r7
 776              	.LVL112:
ARM GAS  /tmp/ccBlGcgZ.s 			page 19


 777 0010 FFF7FEFF 		bl	__aeabi_fsub
 778              	.LVL113:
 779 0014 2146     		mov	r1, r4
 780 0016 FFF7FEFF 		bl	__aeabi_fdiv
 781              	.LVL114:
 782 001a 8046     		mov	r8, r0
 783              	.LVL115:
  35:Src/txChain.c **** 
 784              		.loc 1 35 0
 785 001c 1649     		ldr	r1, .L58
 786 001e 0898     		ldr	r0, [sp, #32]	@ float
 787              	.LVL116:
 788 0020 FFF7FEFF 		bl	__aeabi_fmul
 789              	.LVL117:
 790 0024 2146     		mov	r1, r4
 791 0026 FFF7FEFF 		bl	__aeabi_fdiv
 792              	.LVL118:
 793 002a FFF7FEFF 		bl	__aeabi_f2uiz
 794              	.LVL119:
 795 002e 0646     		mov	r6, r0
 796              	.LVL120:
  39:Src/txChain.c **** 	{
 797              		.loc 1 39 0
 798 0030 19E0     		b	.L54
 799              	.LVL121:
 800              	.L56:
  41:Src/txChain.c **** 		DWT_Delay_us(delay);
 801              		.loc 1 41 0
 802 0032 0A9B     		ldr	r3, [sp, #40]
 803 0034 099A     		ldr	r2, [sp, #36]
 804 0036 4946     		mov	r1, r9
 805 0038 2846     		mov	r0, r5
 806 003a FFF7FEFF 		bl	sigGen
 807              	.LVL122:
 808              	.LBB36:
 809              	.LBB37:
  24:Inc/dwt_stm32_delay.h **** 
 810              		.loc 2 24 0
 811 003e 0F4B     		ldr	r3, .L58+4
 812 0040 5C68     		ldr	r4, [r3, #4]
 813              	.LVL123:
  27:Inc/dwt_stm32_delay.h **** 
 814              		.loc 2 27 0
 815 0042 FFF7FEFF 		bl	HAL_RCC_GetHCLKFreq
 816              	.LVL124:
 817 0046 0E4A     		ldr	r2, .L58+8
 818 0048 A2FB0032 		umull	r3, r2, r2, r0
 819 004c 920C     		lsrs	r2, r2, #18
 820 004e 06FB02F2 		mul	r2, r6, r2
 821              	.L55:
 822              		.loc 2 30 0
 823 0052 0A4B     		ldr	r3, .L58+4
 824 0054 5B68     		ldr	r3, [r3, #4]
 825 0056 1B1B     		subs	r3, r3, r4
 826 0058 9342     		cmp	r3, r2
 827 005a FAD3     		bcc	.L55
 828              	.LVL125:
ARM GAS  /tmp/ccBlGcgZ.s 			page 20


 829              	.LBE37:
 830              	.LBE36:
  43:Src/txChain.c **** 
 831              		.loc 1 43 0
 832 005c 4146     		mov	r1, r8
 833 005e 2846     		mov	r0, r5
 834 0060 FFF7FEFF 		bl	__aeabi_fadd
 835              	.LVL126:
 836 0064 0546     		mov	r5, r0
 837              	.LVL127:
 838              	.L54:
  39:Src/txChain.c **** 	{
 839              		.loc 1 39 0
 840 0066 3946     		mov	r1, r7
 841 0068 2846     		mov	r0, r5
 842 006a FFF7FEFF 		bl	__aeabi_fcmple
 843              	.LVL128:
 844 006e 0028     		cmp	r0, #0
 845 0070 DFD1     		bne	.L56
  46:Src/txChain.c **** 
 846              		.loc 1 46 0
 847 0072 BDE8F883 		pop	{r3, r4, r5, r6, r7, r8, r9, pc}
 848              	.LVL129:
 849              	.L59:
 850 0076 00BF     		.align	2
 851              	.L58:
 852 0078 00247449 		.word	1232348160
 853 007c 001000E0 		.word	-536866816
 854 0080 83DE1B43 		.word	1125899907
 855              		.cfi_endproc
 856              	.LFE70:
 858              		.section	.text.disablePA,"ax",%progbits
 859              		.align	1
 860              		.global	disablePA
 861              		.syntax unified
 862              		.thumb
 863              		.thumb_func
 864              		.fpu softvfp
 866              	disablePA:
 867              	.LFB76:
 181:Src/txChain.c **** 
 182:Src/txChain.c **** void disablePA(struct txStruct *txStatus)
 183:Src/txChain.c **** {
 868              		.loc 1 183 0
 869              		.cfi_startproc
 870              		@ args = 0, pretend = 0, frame = 0
 871              		@ frame_needed = 0, uses_anonymous_args = 0
 872              	.LVL130:
 873 0000 10B5     		push	{r4, lr}
 874              	.LCFI6:
 875              		.cfi_def_cfa_offset 8
 876              		.cfi_offset 4, -8
 877              		.cfi_offset 14, -4
 878 0002 0446     		mov	r4, r0
 184:Src/txChain.c **** 	HAL_GPIO_WritePin(PA_PWDN_GPIO_Port,PA_PWDN_Pin,1);
 879              		.loc 1 184 0
 880 0004 0122     		movs	r2, #1
ARM GAS  /tmp/ccBlGcgZ.s 			page 21


 881 0006 4FF40071 		mov	r1, #512
 882 000a 0348     		ldr	r0, .L62
 883              	.LVL131:
 884 000c FFF7FEFF 		bl	HAL_GPIO_WritePin
 885              	.LVL132:
 185:Src/txChain.c **** 	txStatus->paPwdn = 1;
 886              		.loc 1 185 0
 887 0010 0123     		movs	r3, #1
 888 0012 2373     		strb	r3, [r4, #12]
 186:Src/txChain.c **** }
 889              		.loc 1 186 0
 890 0014 10BD     		pop	{r4, pc}
 891              	.LVL133:
 892              	.L63:
 893 0016 00BF     		.align	2
 894              	.L62:
 895 0018 000C0140 		.word	1073810432
 896              		.cfi_endproc
 897              	.LFE76:
 899              		.section	.text.txChainInit,"ax",%progbits
 900              		.align	1
 901              		.global	txChainInit
 902              		.syntax unified
 903              		.thumb
 904              		.thumb_func
 905              		.fpu softvfp
 907              	txChainInit:
 908              	.LFB71:
  49:Src/txChain.c **** 	max2871RFDisable(max2871Status);
 909              		.loc 1 49 0
 910              		.cfi_startproc
 911              		@ args = 0, pretend = 0, frame = 0
 912              		@ frame_needed = 0, uses_anonymous_args = 0
 913              	.LVL134:
 914 0000 38B5     		push	{r3, r4, r5, lr}
 915              	.LCFI7:
 916              		.cfi_def_cfa_offset 16
 917              		.cfi_offset 3, -16
 918              		.cfi_offset 4, -12
 919              		.cfi_offset 5, -8
 920              		.cfi_offset 14, -4
 921 0002 0546     		mov	r5, r0
 922 0004 0C46     		mov	r4, r1
  50:Src/txChain.c **** 	disablePA(txStatus);
 923              		.loc 1 50 0
 924 0006 FFF7FEFF 		bl	max2871RFDisable
 925              	.LVL135:
  51:Src/txChain.c **** 	setAttenuation(MAX_ATTENUATION,txStatus);
 926              		.loc 1 51 0
 927 000a 2046     		mov	r0, r4
 928 000c FFF7FEFF 		bl	disablePA
 929              	.LVL136:
  52:Src/txChain.c **** 	max2871Setup(max2871Status);
 930              		.loc 1 52 0
 931 0010 2146     		mov	r1, r4
 932 0012 0348     		ldr	r0, .L66
 933 0014 FFF7FEFF 		bl	setAttenuation
ARM GAS  /tmp/ccBlGcgZ.s 			page 22


 934              	.LVL137:
  53:Src/txChain.c **** }
 935              		.loc 1 53 0
 936 0018 2846     		mov	r0, r5
 937 001a FFF7FEFF 		bl	max2871Setup
 938              	.LVL138:
  54:Src/txChain.c **** 
 939              		.loc 1 54 0
 940 001e 38BD     		pop	{r3, r4, r5, pc}
 941              	.LVL139:
 942              	.L67:
 943              		.align	2
 944              	.L66:
 945 0020 0000FC41 		.word	1107034112
 946              		.cfi_endproc
 947              	.LFE71:
 949              		.section	.text.txChainPrintStatus,"ax",%progbits
 950              		.align	1
 951              		.global	txChainPrintStatus
 952              		.syntax unified
 953              		.thumb
 954              		.thumb_func
 955              		.fpu softvfp
 957              	txChainPrintStatus:
 958              	.LFB77:
 187:Src/txChain.c **** 
 188:Src/txChain.c **** 
 189:Src/txChain.c **** void txChainPrintStatus(uint8_t verbose, struct txStruct *txStatus)
 190:Src/txChain.c **** {
 959              		.loc 1 190 0
 960              		.cfi_startproc
 961              		@ args = 0, pretend = 0, frame = 128
 962              		@ frame_needed = 0, uses_anonymous_args = 0
 963              	.LVL140:
 964 0000 30B5     		push	{r4, r5, lr}
 965              	.LCFI8:
 966              		.cfi_def_cfa_offset 12
 967              		.cfi_offset 4, -12
 968              		.cfi_offset 5, -8
 969              		.cfi_offset 14, -4
 970 0002 A1B0     		sub	sp, sp, #132
 971              	.LCFI9:
 972              		.cfi_def_cfa_offset 144
 973 0004 0546     		mov	r5, r0
 974 0006 0C46     		mov	r4, r1
 191:Src/txChain.c **** 
 192:Src/txChain.c **** 	char str1[128] = "";
 975              		.loc 1 192 0
 976 0008 0021     		movs	r1, #0
 977              	.LVL141:
 978 000a 0091     		str	r1, [sp]
 979 000c 7C22     		movs	r2, #124
 980 000e 01A8     		add	r0, sp, #4
 981              	.LVL142:
 982 0010 FFF7FEFF 		bl	memset
 983              	.LVL143:
 193:Src/txChain.c **** 
ARM GAS  /tmp/ccBlGcgZ.s 			page 23


 194:Src/txChain.c **** 	printUSB((char *)"> ----  TX Chain  ----\n");
 984              		.loc 1 194 0
 985 0014 2448     		ldr	r0, .L72
 986 0016 FFF7FEFF 		bl	printUSB
 987              	.LVL144:
 195:Src/txChain.c **** 
 196:Src/txChain.c **** 	sprintf((char *)str1, "> Attenuation = %0.1f dB\n", txStatus->attenuation);
 988              		.loc 1 196 0
 989 001a A068     		ldr	r0, [r4, #8]	@ float
 990 001c FFF7FEFF 		bl	__aeabi_f2d
 991              	.LVL145:
 992 0020 0246     		mov	r2, r0
 993 0022 0B46     		mov	r3, r1
 994 0024 2149     		ldr	r1, .L72+4
 995 0026 6846     		mov	r0, sp
 996 0028 FFF7FEFF 		bl	sprintf
 997              	.LVL146:
 197:Src/txChain.c **** 	printUSB(str1);
 998              		.loc 1 197 0
 999 002c 6846     		mov	r0, sp
 1000 002e FFF7FEFF 		bl	printUSB
 1001              	.LVL147:
 198:Src/txChain.c **** 
 199:Src/txChain.c **** 	sprintf((char *)str1, "> PA Enabled = %d\n", !txStatus->paPwdn);
 1002              		.loc 1 199 0
 1003 0032 227B     		ldrb	r2, [r4, #12]	@ zero_extendqisi2
 1004 0034 B2FA82F2 		clz	r2, r2
 1005 0038 5209     		lsrs	r2, r2, #5
 1006 003a 1D49     		ldr	r1, .L72+8
 1007 003c 6846     		mov	r0, sp
 1008 003e FFF7FEFF 		bl	sprintf
 1009              	.LVL148:
 200:Src/txChain.c **** 	printUSB(str1);
 1010              		.loc 1 200 0
 1011 0042 6846     		mov	r0, sp
 1012 0044 FFF7FEFF 		bl	printUSB
 1013              	.LVL149:
 201:Src/txChain.c **** 
 202:Src/txChain.c **** 	sprintf((char *)str1, "> Set Output Power= %0.2f dBm\n", txStatus->setOutputPower);
 1014              		.loc 1 202 0
 1015 0048 6068     		ldr	r0, [r4, #4]	@ float
 1016 004a FFF7FEFF 		bl	__aeabi_f2d
 1017              	.LVL150:
 1018 004e 0246     		mov	r2, r0
 1019 0050 0B46     		mov	r3, r1
 1020 0052 1849     		ldr	r1, .L72+12
 1021 0054 6846     		mov	r0, sp
 1022 0056 FFF7FEFF 		bl	sprintf
 1023              	.LVL151:
 203:Src/txChain.c **** 	printUSB(str1);
 1024              		.loc 1 203 0
 1025 005a 6846     		mov	r0, sp
 1026 005c FFF7FEFF 		bl	printUSB
 1027              	.LVL152:
 204:Src/txChain.c **** 
 205:Src/txChain.c **** 	readAD8319(txStatus);
 1028              		.loc 1 205 0
ARM GAS  /tmp/ccBlGcgZ.s 			page 24


 1029 0060 2046     		mov	r0, r4
 1030 0062 FFF7FEFF 		bl	readAD8319
 1031              	.LVL153:
 206:Src/txChain.c **** 
 207:Src/txChain.c **** 	sprintf((char *)str1, "> Measured Output Power = %0.2f dBm\n", txStatus->measOutputPower);
 1032              		.loc 1 207 0
 1033 0066 2068     		ldr	r0, [r4]	@ float
 1034 0068 FFF7FEFF 		bl	__aeabi_f2d
 1035              	.LVL154:
 1036 006c 0246     		mov	r2, r0
 1037 006e 0B46     		mov	r3, r1
 1038 0070 1149     		ldr	r1, .L72+16
 1039 0072 6846     		mov	r0, sp
 1040 0074 FFF7FEFF 		bl	sprintf
 1041              	.LVL155:
 208:Src/txChain.c **** 	printUSB(str1);
 1042              		.loc 1 208 0
 1043 0078 6846     		mov	r0, sp
 1044 007a FFF7FEFF 		bl	printUSB
 1045              	.LVL156:
 209:Src/txChain.c **** 
 210:Src/txChain.c **** 	if (verbose)
 1046              		.loc 1 210 0
 1047 007e 0DB9     		cbnz	r5, .L71
 1048              	.L68:
 211:Src/txChain.c **** 	{
 212:Src/txChain.c **** 		readAD8319(txStatus);
 213:Src/txChain.c **** 		sprintf((char *)str1, "> Measured Voltage= %0.2f V\n", readAD8319(txStatus));
 214:Src/txChain.c **** 		printUSB(str1);
 215:Src/txChain.c **** 	}
 216:Src/txChain.c **** }
 1049              		.loc 1 216 0
 1050 0080 21B0     		add	sp, sp, #132
 1051              	.LCFI10:
 1052              		.cfi_remember_state
 1053              		.cfi_def_cfa_offset 12
 1054              		@ sp needed
 1055 0082 30BD     		pop	{r4, r5, pc}
 1056              	.LVL157:
 1057              	.L71:
 1058              	.LCFI11:
 1059              		.cfi_restore_state
 212:Src/txChain.c **** 		sprintf((char *)str1, "> Measured Voltage= %0.2f V\n", readAD8319(txStatus));
 1060              		.loc 1 212 0
 1061 0084 2046     		mov	r0, r4
 1062 0086 FFF7FEFF 		bl	readAD8319
 1063              	.LVL158:
 213:Src/txChain.c **** 		printUSB(str1);
 1064              		.loc 1 213 0
 1065 008a 2046     		mov	r0, r4
 1066 008c FFF7FEFF 		bl	readAD8319
 1067              	.LVL159:
 1068 0090 FFF7FEFF 		bl	__aeabi_f2d
 1069              	.LVL160:
 1070 0094 0246     		mov	r2, r0
 1071 0096 0B46     		mov	r3, r1
 1072 0098 0849     		ldr	r1, .L72+20
ARM GAS  /tmp/ccBlGcgZ.s 			page 25


 1073 009a 6846     		mov	r0, sp
 1074 009c FFF7FEFF 		bl	sprintf
 1075              	.LVL161:
 214:Src/txChain.c **** 	}
 1076              		.loc 1 214 0
 1077 00a0 6846     		mov	r0, sp
 1078 00a2 FFF7FEFF 		bl	printUSB
 1079              	.LVL162:
 1080              		.loc 1 216 0
 1081 00a6 EBE7     		b	.L68
 1082              	.L73:
 1083              		.align	2
 1084              	.L72:
 1085 00a8 00000000 		.word	.LC1
 1086 00ac 18000000 		.word	.LC2
 1087 00b0 34000000 		.word	.LC3
 1088 00b4 48000000 		.word	.LC4
 1089 00b8 68000000 		.word	.LC5
 1090 00bc 90000000 		.word	.LC6
 1091              		.cfi_endproc
 1092              	.LFE77:
 1094              		.comm	txStatus,16,4
 1095              		.section	.rodata.setOutputPower.str1.4,"aMS",%progbits,1
 1096              		.align	2
 1097              	.LC0:
 1098 0000 3E205261 		.ascii	"> Ran out of attenuation!\015\012\000"
 1098      6E206F75 
 1098      74206F66 
 1098      20617474 
 1098      656E7561 
 1099              		.section	.rodata.txChainPrintStatus.str1.4,"aMS",%progbits,1
 1100              		.align	2
 1101              	.LC1:
 1102 0000 3E202D2D 		.ascii	"> ----  TX Chain  ----\012\000"
 1102      2D2D2020 
 1102      54582043 
 1102      6861696E 
 1102      20202D2D 
 1103              	.LC2:
 1104 0018 3E204174 		.ascii	"> Attenuation = %0.1f dB\012\000"
 1104      74656E75 
 1104      6174696F 
 1104      6E203D20 
 1104      25302E31 
 1105 0032 0000     		.space	2
 1106              	.LC3:
 1107 0034 3E205041 		.ascii	"> PA Enabled = %d\012\000"
 1107      20456E61 
 1107      626C6564 
 1107      203D2025 
 1107      640A00
 1108 0047 00       		.space	1
 1109              	.LC4:
 1110 0048 3E205365 		.ascii	"> Set Output Power= %0.2f dBm\012\000"
 1110      74204F75 
 1110      74707574 
 1110      20506F77 
ARM GAS  /tmp/ccBlGcgZ.s 			page 26


 1110      65723D20 
 1111 0067 00       		.space	1
 1112              	.LC5:
 1113 0068 3E204D65 		.ascii	"> Measured Output Power = %0.2f dBm\012\000"
 1113      61737572 
 1113      6564204F 
 1113      75747075 
 1113      7420506F 
 1114 008d 000000   		.space	3
 1115              	.LC6:
 1116 0090 3E204D65 		.ascii	"> Measured Voltage= %0.2f V\012\000"
 1116      61737572 
 1116      65642056 
 1116      6F6C7461 
 1116      67653D20 
 1117              		.text
 1118              	.Letext0:
 1119              		.file 3 "/usr/include/newlib/machine/_default_types.h"
 1120              		.file 4 "/usr/include/newlib/sys/_stdint.h"
 1121              		.file 5 "Drivers/CMSIS/Include/core_cm3.h"
 1122              		.file 6 "Drivers/CMSIS/Device/ST/STM32F1xx/Include/system_stm32f1xx.h"
 1123              		.file 7 "Drivers/CMSIS/Device/ST/STM32F1xx/Include/stm32f103xb.h"
 1124              		.file 8 "Drivers/CMSIS/Device/ST/STM32F1xx/Include/stm32f1xx.h"
 1125              		.file 9 "Drivers/STM32F1xx_HAL_Driver/Inc/stm32f1xx_hal_def.h"
 1126              		.file 10 "Drivers/STM32F1xx_HAL_Driver/Inc/stm32f1xx_hal_dma.h"
 1127              		.file 11 "Drivers/STM32F1xx_HAL_Driver/Inc/stm32f1xx_hal_adc.h"
 1128              		.file 12 "Drivers/STM32F1xx_HAL_Driver/Inc/stm32f1xx_hal.h"
 1129              		.file 13 "Inc/main.h"
 1130              		.file 14 "Inc/max2871.h"
 1131              		.file 15 "Inc/txChain.h"
 1132              		.file 16 "/usr/include/newlib/sys/lock.h"
 1133              		.file 17 "/usr/include/newlib/sys/_types.h"
 1134              		.file 18 "/usr/lib/gcc/arm-none-eabi/7.3.1/include/stddef.h"
 1135              		.file 19 "/usr/include/newlib/sys/reent.h"
 1136              		.file 20 "/usr/include/newlib/stdlib.h"
 1137              		.file 21 "Middlewares/ST/STM32_USB_Device_Library/Core/Inc/usbd_def.h"
 1138              		.file 22 "Middlewares/ST/STM32_USB_Device_Library/Class/CDC/Inc/usbd_cdc.h"
 1139              		.file 23 "Inc/usbd_cdc_if.h"
 1140              		.file 24 "/usr/include/newlib/math.h"
 1141              		.file 25 "/usr/include/newlib/stdio.h"
 1142              		.file 26 "Drivers/STM32F1xx_HAL_Driver/Inc/stm32f1xx_hal_gpio.h"
 1143              		.file 27 "Drivers/STM32F1xx_HAL_Driver/Inc/stm32f1xx_hal_rcc.h"
 1144              		.file 28 "Inc/STP08CP05.h"
 1145              		.file 29 "<built-in>"
ARM GAS  /tmp/ccBlGcgZ.s 			page 27


DEFINED SYMBOLS
                            *ABS*:0000000000000000 txChain.c
     /tmp/ccBlGcgZ.s:18     .text.setAttenuation:0000000000000000 $t
     /tmp/ccBlGcgZ.s:25     .text.setAttenuation:0000000000000000 setAttenuation
     /tmp/ccBlGcgZ.s:235    .text.setAttenuation:00000000000000f8 $d
     /tmp/ccBlGcgZ.s:248    .text.readAD8319:0000000000000000 $t
     /tmp/ccBlGcgZ.s:255    .text.readAD8319:0000000000000000 readAD8319
     /tmp/ccBlGcgZ.s:359    .text.readAD8319:0000000000000080 $d
     /tmp/ccBlGcgZ.s:378    .text.setOutputPower:0000000000000000 $t
     /tmp/ccBlGcgZ.s:385    .text.setOutputPower:0000000000000000 setOutputPower
     /tmp/ccBlGcgZ.s:624    .text.setOutputPower:000000000000015c $d
     /tmp/ccBlGcgZ.s:633    .text.enablePA:0000000000000000 $t
     /tmp/ccBlGcgZ.s:640    .text.enablePA:0000000000000000 enablePA
     /tmp/ccBlGcgZ.s:669    .text.enablePA:0000000000000018 $d
     /tmp/ccBlGcgZ.s:674    .text.sigGen:0000000000000000 $t
     /tmp/ccBlGcgZ.s:681    .text.sigGen:0000000000000000 sigGen
     /tmp/ccBlGcgZ.s:743    .text.sweep:0000000000000000 $t
     /tmp/ccBlGcgZ.s:750    .text.sweep:0000000000000000 sweep
     /tmp/ccBlGcgZ.s:852    .text.sweep:0000000000000078 $d
     /tmp/ccBlGcgZ.s:859    .text.disablePA:0000000000000000 $t
     /tmp/ccBlGcgZ.s:866    .text.disablePA:0000000000000000 disablePA
     /tmp/ccBlGcgZ.s:895    .text.disablePA:0000000000000018 $d
     /tmp/ccBlGcgZ.s:900    .text.txChainInit:0000000000000000 $t
     /tmp/ccBlGcgZ.s:907    .text.txChainInit:0000000000000000 txChainInit
     /tmp/ccBlGcgZ.s:945    .text.txChainInit:0000000000000020 $d
     /tmp/ccBlGcgZ.s:950    .text.txChainPrintStatus:0000000000000000 $t
     /tmp/ccBlGcgZ.s:957    .text.txChainPrintStatus:0000000000000000 txChainPrintStatus
     /tmp/ccBlGcgZ.s:1085   .text.txChainPrintStatus:00000000000000a8 $d
                            *COM*:0000000000000010 txStatus
     /tmp/ccBlGcgZ.s:1096   .rodata.setOutputPower.str1.4:0000000000000000 $d
     /tmp/ccBlGcgZ.s:1100   .rodata.txChainPrintStatus.str1.4:0000000000000000 $d

UNDEFINED SYMBOLS
__aeabi_fmul
__aeabi_f2uiz
HAL_GPIO_WritePin
HAL_RCC_GetHCLKFreq
__aeabi_ui2d
__aeabi_dmul
__aeabi_d2f
__aeabi_f2d
__aeabi_dadd
HAL_Delay
HAL_ADC_PollForConversion
HAL_ADC_GetValue
hadc1
__aeabi_fcmpge
__aeabi_dcmpgt
__aeabi_fcmplt
__aeabi_fadd
__aeabi_dsub
__aeabi_dcmplt
__aeabi_fcmpgt
__aeabi_fsub
max2871SetPower
printUSB
max2871RFEnable
ARM GAS  /tmp/ccBlGcgZ.s 			page 28


max2871SetFrequency
freqToLed
stpSpiTx
max2871CheckLD
__aeabi_fdiv
__aeabi_fcmple
max2871RFDisable
max2871Setup
memset
sprintf
