ARM GAS  /tmp/ccDK0vjq.s 			page 1


   1              		.cpu cortex-m3
   2              		.eabi_attribute 20, 1
   3              		.eabi_attribute 21, 1
   4              		.eabi_attribute 23, 3
   5              		.eabi_attribute 24, 1
   6              		.eabi_attribute 25, 1
   7              		.eabi_attribute 26, 1
   8              		.eabi_attribute 30, 1
   9              		.eabi_attribute 34, 1
  10              		.eabi_attribute 18, 4
  11              		.file	"usbd_desc.c"
  12              		.text
  13              	.Ltext0:
  14              		.cfi_sections	.debug_frame
  15              		.section	.text.USBD_FS_DeviceDescriptor,"ax",%progbits
  16              		.align	1
  17              		.global	USBD_FS_DeviceDescriptor
  18              		.syntax unified
  19              		.thumb
  20              		.thumb_func
  21              		.fpu softvfp
  23              	USBD_FS_DeviceDescriptor:
  24              	.LFB68:
  25              		.file 1 "Src/usbd_desc.c"
   1:Src/usbd_desc.c **** /* USER CODE BEGIN Header */
   2:Src/usbd_desc.c **** /**
   3:Src/usbd_desc.c ****   ******************************************************************************
   4:Src/usbd_desc.c ****   * @file           : usbd_desc.c
   5:Src/usbd_desc.c ****   * @version        : v2.0_Cube
   6:Src/usbd_desc.c ****   * @brief          : This file implements the USB device descriptors.
   7:Src/usbd_desc.c ****   ******************************************************************************
   8:Src/usbd_desc.c ****   * @attention
   9:Src/usbd_desc.c ****   *
  10:Src/usbd_desc.c ****   * <h2><center>&copy; Copyright (c) 2020 STMicroelectronics.
  11:Src/usbd_desc.c ****   * All rights reserved.</center></h2>
  12:Src/usbd_desc.c ****   *
  13:Src/usbd_desc.c ****   * This software component is licensed by ST under Ultimate Liberty license
  14:Src/usbd_desc.c ****   * SLA0044, the "License"; You may not use this file except in compliance with
  15:Src/usbd_desc.c ****   * the License. You may obtain a copy of the License at:
  16:Src/usbd_desc.c ****   *                             www.st.com/SLA0044
  17:Src/usbd_desc.c ****   *
  18:Src/usbd_desc.c ****   ******************************************************************************
  19:Src/usbd_desc.c ****   */
  20:Src/usbd_desc.c **** /* USER CODE END Header */
  21:Src/usbd_desc.c **** 
  22:Src/usbd_desc.c **** /* Includes ------------------------------------------------------------------*/
  23:Src/usbd_desc.c **** #include "usbd_core.h"
  24:Src/usbd_desc.c **** #include "usbd_desc.h"
  25:Src/usbd_desc.c **** #include "usbd_conf.h"
  26:Src/usbd_desc.c **** 
  27:Src/usbd_desc.c **** /* USER CODE BEGIN INCLUDE */
  28:Src/usbd_desc.c **** 
  29:Src/usbd_desc.c **** /* USER CODE END INCLUDE */
  30:Src/usbd_desc.c **** 
  31:Src/usbd_desc.c **** /* Private typedef -----------------------------------------------------------*/
  32:Src/usbd_desc.c **** /* Private define ------------------------------------------------------------*/
  33:Src/usbd_desc.c **** /* Private macro -------------------------------------------------------------*/
ARM GAS  /tmp/ccDK0vjq.s 			page 2


  34:Src/usbd_desc.c **** 
  35:Src/usbd_desc.c **** /* USER CODE BEGIN PV */
  36:Src/usbd_desc.c **** /* Private variables ---------------------------------------------------------*/
  37:Src/usbd_desc.c **** 
  38:Src/usbd_desc.c **** /* USER CODE END PV */
  39:Src/usbd_desc.c **** 
  40:Src/usbd_desc.c **** /** @addtogroup STM32_USB_OTG_DEVICE_LIBRARY
  41:Src/usbd_desc.c ****   * @{
  42:Src/usbd_desc.c ****   */
  43:Src/usbd_desc.c **** 
  44:Src/usbd_desc.c **** /** @addtogroup USBD_DESC
  45:Src/usbd_desc.c ****   * @{
  46:Src/usbd_desc.c ****   */
  47:Src/usbd_desc.c **** 
  48:Src/usbd_desc.c **** /** @defgroup USBD_DESC_Private_TypesDefinitions USBD_DESC_Private_TypesDefinitions
  49:Src/usbd_desc.c ****   * @brief Private types.
  50:Src/usbd_desc.c ****   * @{
  51:Src/usbd_desc.c ****   */
  52:Src/usbd_desc.c **** 
  53:Src/usbd_desc.c **** /* USER CODE BEGIN PRIVATE_TYPES */
  54:Src/usbd_desc.c **** 
  55:Src/usbd_desc.c **** /* USER CODE END PRIVATE_TYPES */
  56:Src/usbd_desc.c **** 
  57:Src/usbd_desc.c **** /**
  58:Src/usbd_desc.c ****   * @}
  59:Src/usbd_desc.c ****   */
  60:Src/usbd_desc.c **** 
  61:Src/usbd_desc.c **** /** @defgroup USBD_DESC_Private_Defines USBD_DESC_Private_Defines
  62:Src/usbd_desc.c ****   * @brief Private defines.
  63:Src/usbd_desc.c ****   * @{
  64:Src/usbd_desc.c ****   */
  65:Src/usbd_desc.c **** 
  66:Src/usbd_desc.c **** #define USBD_VID     0xFEED
  67:Src/usbd_desc.c **** #define USBD_LANGID_STRING     1033
  68:Src/usbd_desc.c **** #define USBD_MANUFACTURER_STRING     "JOSHAJOHNSON"
  69:Src/usbd_desc.c **** #define USBD_PID_FS     0xC0DE
  70:Src/usbd_desc.c **** #define USBD_PRODUCT_STRING_FS     "RF Signal Generator"
  71:Src/usbd_desc.c **** #define USBD_CONFIGURATION_STRING_FS     "CDC Config"
  72:Src/usbd_desc.c **** #define USBD_INTERFACE_STRING_FS     "CDC Interface"
  73:Src/usbd_desc.c **** 
  74:Src/usbd_desc.c **** /* USER CODE BEGIN PRIVATE_DEFINES */
  75:Src/usbd_desc.c **** 
  76:Src/usbd_desc.c **** /* USER CODE END PRIVATE_DEFINES */
  77:Src/usbd_desc.c **** 
  78:Src/usbd_desc.c **** /**
  79:Src/usbd_desc.c ****   * @}
  80:Src/usbd_desc.c ****   */
  81:Src/usbd_desc.c **** 
  82:Src/usbd_desc.c **** /* USER CODE BEGIN 0 */
  83:Src/usbd_desc.c **** 
  84:Src/usbd_desc.c **** /* USER CODE END 0 */
  85:Src/usbd_desc.c **** 
  86:Src/usbd_desc.c **** /** @defgroup USBD_DESC_Private_Macros USBD_DESC_Private_Macros
  87:Src/usbd_desc.c ****   * @brief Private macros.
  88:Src/usbd_desc.c ****   * @{
  89:Src/usbd_desc.c ****   */
  90:Src/usbd_desc.c **** 
ARM GAS  /tmp/ccDK0vjq.s 			page 3


  91:Src/usbd_desc.c **** /* USER CODE BEGIN PRIVATE_MACRO */
  92:Src/usbd_desc.c **** 
  93:Src/usbd_desc.c **** /* USER CODE END PRIVATE_MACRO */
  94:Src/usbd_desc.c **** 
  95:Src/usbd_desc.c **** /**
  96:Src/usbd_desc.c ****   * @}
  97:Src/usbd_desc.c ****   */
  98:Src/usbd_desc.c ****   
  99:Src/usbd_desc.c **** /** @defgroup USBD_DESC_Private_FunctionPrototypes USBD_DESC_Private_FunctionPrototypes
 100:Src/usbd_desc.c ****   * @brief Private functions declaration.
 101:Src/usbd_desc.c ****   * @{
 102:Src/usbd_desc.c ****   */
 103:Src/usbd_desc.c ****   
 104:Src/usbd_desc.c **** static void Get_SerialNum(void);
 105:Src/usbd_desc.c **** static void IntToUnicode(uint32_t value, uint8_t * pbuf, uint8_t len);
 106:Src/usbd_desc.c ****   
 107:Src/usbd_desc.c **** /**
 108:Src/usbd_desc.c ****   * @}
 109:Src/usbd_desc.c ****   */  
 110:Src/usbd_desc.c ****   
 111:Src/usbd_desc.c **** 
 112:Src/usbd_desc.c **** /** @defgroup USBD_DESC_Private_FunctionPrototypes USBD_DESC_Private_FunctionPrototypes
 113:Src/usbd_desc.c ****   * @brief Private functions declaration for FS.
 114:Src/usbd_desc.c ****   * @{
 115:Src/usbd_desc.c ****   */
 116:Src/usbd_desc.c **** 
 117:Src/usbd_desc.c **** uint8_t * USBD_FS_DeviceDescriptor(USBD_SpeedTypeDef speed, uint16_t *length);
 118:Src/usbd_desc.c **** uint8_t * USBD_FS_LangIDStrDescriptor(USBD_SpeedTypeDef speed, uint16_t *length);
 119:Src/usbd_desc.c **** uint8_t * USBD_FS_ManufacturerStrDescriptor(USBD_SpeedTypeDef speed, uint16_t *length);
 120:Src/usbd_desc.c **** uint8_t * USBD_FS_ProductStrDescriptor(USBD_SpeedTypeDef speed, uint16_t *length);
 121:Src/usbd_desc.c **** uint8_t * USBD_FS_SerialStrDescriptor(USBD_SpeedTypeDef speed, uint16_t *length);
 122:Src/usbd_desc.c **** uint8_t * USBD_FS_ConfigStrDescriptor(USBD_SpeedTypeDef speed, uint16_t *length);
 123:Src/usbd_desc.c **** uint8_t * USBD_FS_InterfaceStrDescriptor(USBD_SpeedTypeDef speed, uint16_t *length);
 124:Src/usbd_desc.c **** 
 125:Src/usbd_desc.c **** /**
 126:Src/usbd_desc.c ****   * @}
 127:Src/usbd_desc.c ****   */
 128:Src/usbd_desc.c **** 
 129:Src/usbd_desc.c **** /** @defgroup USBD_DESC_Private_Variables USBD_DESC_Private_Variables
 130:Src/usbd_desc.c ****   * @brief Private variables.
 131:Src/usbd_desc.c ****   * @{
 132:Src/usbd_desc.c ****   */
 133:Src/usbd_desc.c **** 
 134:Src/usbd_desc.c **** USBD_DescriptorsTypeDef FS_Desc =
 135:Src/usbd_desc.c **** {
 136:Src/usbd_desc.c ****   USBD_FS_DeviceDescriptor
 137:Src/usbd_desc.c **** , USBD_FS_LangIDStrDescriptor
 138:Src/usbd_desc.c **** , USBD_FS_ManufacturerStrDescriptor
 139:Src/usbd_desc.c **** , USBD_FS_ProductStrDescriptor
 140:Src/usbd_desc.c **** , USBD_FS_SerialStrDescriptor
 141:Src/usbd_desc.c **** , USBD_FS_ConfigStrDescriptor
 142:Src/usbd_desc.c **** , USBD_FS_InterfaceStrDescriptor
 143:Src/usbd_desc.c **** };
 144:Src/usbd_desc.c **** 
 145:Src/usbd_desc.c **** #if defined ( __ICCARM__ ) /* IAR Compiler */
 146:Src/usbd_desc.c ****   #pragma data_alignment=4
 147:Src/usbd_desc.c **** #endif /* defined ( __ICCARM__ ) */
ARM GAS  /tmp/ccDK0vjq.s 			page 4


 148:Src/usbd_desc.c **** /** USB standard device descriptor. */
 149:Src/usbd_desc.c **** __ALIGN_BEGIN uint8_t USBD_FS_DeviceDesc[USB_LEN_DEV_DESC] __ALIGN_END =
 150:Src/usbd_desc.c **** {
 151:Src/usbd_desc.c ****   0x12,                       /*bLength */
 152:Src/usbd_desc.c ****   USB_DESC_TYPE_DEVICE,       /*bDescriptorType*/
 153:Src/usbd_desc.c ****   0x00,                       /*bcdUSB */
 154:Src/usbd_desc.c ****   0x02,
 155:Src/usbd_desc.c ****   0x02,                       /*bDeviceClass*/
 156:Src/usbd_desc.c ****   0x02,                       /*bDeviceSubClass*/
 157:Src/usbd_desc.c ****   0x00,                       /*bDeviceProtocol*/
 158:Src/usbd_desc.c ****   USB_MAX_EP0_SIZE,           /*bMaxPacketSize*/
 159:Src/usbd_desc.c ****   LOBYTE(USBD_VID),           /*idVendor*/
 160:Src/usbd_desc.c ****   HIBYTE(USBD_VID),           /*idVendor*/
 161:Src/usbd_desc.c ****   LOBYTE(USBD_PID_FS),        /*idProduct*/
 162:Src/usbd_desc.c ****   HIBYTE(USBD_PID_FS),        /*idProduct*/
 163:Src/usbd_desc.c ****   0x00,                       /*bcdDevice rel. 2.00*/
 164:Src/usbd_desc.c ****   0x02,
 165:Src/usbd_desc.c ****   USBD_IDX_MFC_STR,           /*Index of manufacturer  string*/
 166:Src/usbd_desc.c ****   USBD_IDX_PRODUCT_STR,       /*Index of product string*/
 167:Src/usbd_desc.c ****   USBD_IDX_SERIAL_STR,        /*Index of serial number string*/
 168:Src/usbd_desc.c ****   USBD_MAX_NUM_CONFIGURATION  /*bNumConfigurations*/
 169:Src/usbd_desc.c **** };
 170:Src/usbd_desc.c **** 
 171:Src/usbd_desc.c **** /* USB_DeviceDescriptor */
 172:Src/usbd_desc.c **** 
 173:Src/usbd_desc.c **** /**
 174:Src/usbd_desc.c ****   * @}
 175:Src/usbd_desc.c ****   */
 176:Src/usbd_desc.c **** 
 177:Src/usbd_desc.c **** /** @defgroup USBD_DESC_Private_Variables USBD_DESC_Private_Variables
 178:Src/usbd_desc.c ****   * @brief Private variables.
 179:Src/usbd_desc.c ****   * @{
 180:Src/usbd_desc.c ****   */
 181:Src/usbd_desc.c **** 
 182:Src/usbd_desc.c **** #if defined ( __ICCARM__ ) /* IAR Compiler */
 183:Src/usbd_desc.c ****   #pragma data_alignment=4
 184:Src/usbd_desc.c **** #endif /* defined ( __ICCARM__ ) */
 185:Src/usbd_desc.c **** 
 186:Src/usbd_desc.c **** /** USB lang indentifier descriptor. */
 187:Src/usbd_desc.c **** __ALIGN_BEGIN uint8_t USBD_LangIDDesc[USB_LEN_LANGID_STR_DESC] __ALIGN_END =
 188:Src/usbd_desc.c **** {
 189:Src/usbd_desc.c ****      USB_LEN_LANGID_STR_DESC,
 190:Src/usbd_desc.c ****      USB_DESC_TYPE_STRING,
 191:Src/usbd_desc.c ****      LOBYTE(USBD_LANGID_STRING),
 192:Src/usbd_desc.c ****      HIBYTE(USBD_LANGID_STRING)
 193:Src/usbd_desc.c **** };
 194:Src/usbd_desc.c **** 
 195:Src/usbd_desc.c **** #if defined ( __ICCARM__ ) /* IAR Compiler */
 196:Src/usbd_desc.c ****   #pragma data_alignment=4
 197:Src/usbd_desc.c **** #endif /* defined ( __ICCARM__ ) */
 198:Src/usbd_desc.c **** /* Internal string descriptor. */
 199:Src/usbd_desc.c **** __ALIGN_BEGIN uint8_t USBD_StrDesc[USBD_MAX_STR_DESC_SIZ] __ALIGN_END;
 200:Src/usbd_desc.c **** 
 201:Src/usbd_desc.c **** #if defined ( __ICCARM__ ) /*!< IAR Compiler */
 202:Src/usbd_desc.c ****   #pragma data_alignment=4   
 203:Src/usbd_desc.c **** #endif
 204:Src/usbd_desc.c **** __ALIGN_BEGIN uint8_t USBD_StringSerial[USB_SIZ_STRING_SERIAL] __ALIGN_END = {
ARM GAS  /tmp/ccDK0vjq.s 			page 5


 205:Src/usbd_desc.c ****   USB_SIZ_STRING_SERIAL,
 206:Src/usbd_desc.c ****   USB_DESC_TYPE_STRING,
 207:Src/usbd_desc.c **** };
 208:Src/usbd_desc.c **** 
 209:Src/usbd_desc.c **** /**
 210:Src/usbd_desc.c ****   * @}
 211:Src/usbd_desc.c ****   */
 212:Src/usbd_desc.c **** 
 213:Src/usbd_desc.c **** /** @defgroup USBD_DESC_Private_Functions USBD_DESC_Private_Functions
 214:Src/usbd_desc.c ****   * @brief Private functions.
 215:Src/usbd_desc.c ****   * @{
 216:Src/usbd_desc.c ****   */
 217:Src/usbd_desc.c **** 
 218:Src/usbd_desc.c **** /**
 219:Src/usbd_desc.c ****   * @brief  Return the device descriptor
 220:Src/usbd_desc.c ****   * @param  speed : Current device speed
 221:Src/usbd_desc.c ****   * @param  length : Pointer to data length variable
 222:Src/usbd_desc.c ****   * @retval Pointer to descriptor buffer
 223:Src/usbd_desc.c ****   */
 224:Src/usbd_desc.c **** uint8_t * USBD_FS_DeviceDescriptor(USBD_SpeedTypeDef speed, uint16_t *length)
 225:Src/usbd_desc.c **** {
  26              		.loc 1 225 0
  27              		.cfi_startproc
  28              		@ args = 0, pretend = 0, frame = 0
  29              		@ frame_needed = 0, uses_anonymous_args = 0
  30              		@ link register save eliminated.
  31              	.LVL0:
 226:Src/usbd_desc.c ****   UNUSED(speed);
 227:Src/usbd_desc.c ****   *length = sizeof(USBD_FS_DeviceDesc);
  32              		.loc 1 227 0
  33 0000 1223     		movs	r3, #18
  34 0002 0B80     		strh	r3, [r1]	@ movhi
 228:Src/usbd_desc.c ****   return USBD_FS_DeviceDesc;
 229:Src/usbd_desc.c **** }
  35              		.loc 1 229 0
  36 0004 0048     		ldr	r0, .L2
  37              	.LVL1:
  38 0006 7047     		bx	lr
  39              	.L3:
  40              		.align	2
  41              	.L2:
  42 0008 00000000 		.word	.LANCHOR0
  43              		.cfi_endproc
  44              	.LFE68:
  46              		.section	.text.USBD_FS_LangIDStrDescriptor,"ax",%progbits
  47              		.align	1
  48              		.global	USBD_FS_LangIDStrDescriptor
  49              		.syntax unified
  50              		.thumb
  51              		.thumb_func
  52              		.fpu softvfp
  54              	USBD_FS_LangIDStrDescriptor:
  55              	.LFB69:
 230:Src/usbd_desc.c **** 
 231:Src/usbd_desc.c **** /**
 232:Src/usbd_desc.c ****   * @brief  Return the LangID string descriptor
 233:Src/usbd_desc.c ****   * @param  speed : Current device speed
ARM GAS  /tmp/ccDK0vjq.s 			page 6


 234:Src/usbd_desc.c ****   * @param  length : Pointer to data length variable
 235:Src/usbd_desc.c ****   * @retval Pointer to descriptor buffer
 236:Src/usbd_desc.c ****   */
 237:Src/usbd_desc.c **** uint8_t * USBD_FS_LangIDStrDescriptor(USBD_SpeedTypeDef speed, uint16_t *length)
 238:Src/usbd_desc.c **** {
  56              		.loc 1 238 0
  57              		.cfi_startproc
  58              		@ args = 0, pretend = 0, frame = 0
  59              		@ frame_needed = 0, uses_anonymous_args = 0
  60              		@ link register save eliminated.
  61              	.LVL2:
 239:Src/usbd_desc.c ****   UNUSED(speed);
 240:Src/usbd_desc.c ****   *length = sizeof(USBD_LangIDDesc);
  62              		.loc 1 240 0
  63 0000 0423     		movs	r3, #4
  64 0002 0B80     		strh	r3, [r1]	@ movhi
 241:Src/usbd_desc.c ****   return USBD_LangIDDesc;
 242:Src/usbd_desc.c **** }
  65              		.loc 1 242 0
  66 0004 0048     		ldr	r0, .L5
  67              	.LVL3:
  68 0006 7047     		bx	lr
  69              	.L6:
  70              		.align	2
  71              	.L5:
  72 0008 00000000 		.word	.LANCHOR1
  73              		.cfi_endproc
  74              	.LFE69:
  76              		.section	.text.IntToUnicode,"ax",%progbits
  77              		.align	1
  78              		.syntax unified
  79              		.thumb
  80              		.thumb_func
  81              		.fpu softvfp
  83              	IntToUnicode:
  84              	.LFB76:
 243:Src/usbd_desc.c **** 
 244:Src/usbd_desc.c **** /**
 245:Src/usbd_desc.c ****   * @brief  Return the product string descriptor
 246:Src/usbd_desc.c ****   * @param  speed : Current device speed
 247:Src/usbd_desc.c ****   * @param  length : Pointer to data length variable
 248:Src/usbd_desc.c ****   * @retval Pointer to descriptor buffer
 249:Src/usbd_desc.c ****   */
 250:Src/usbd_desc.c **** uint8_t * USBD_FS_ProductStrDescriptor(USBD_SpeedTypeDef speed, uint16_t *length)
 251:Src/usbd_desc.c **** {
 252:Src/usbd_desc.c ****   if(speed == 0)
 253:Src/usbd_desc.c ****   {
 254:Src/usbd_desc.c ****     USBD_GetString((uint8_t *)USBD_PRODUCT_STRING_FS, USBD_StrDesc, length);
 255:Src/usbd_desc.c ****   }
 256:Src/usbd_desc.c ****   else
 257:Src/usbd_desc.c ****   {
 258:Src/usbd_desc.c ****     USBD_GetString((uint8_t *)USBD_PRODUCT_STRING_FS, USBD_StrDesc, length);
 259:Src/usbd_desc.c ****   }
 260:Src/usbd_desc.c ****   return USBD_StrDesc;
 261:Src/usbd_desc.c **** }
 262:Src/usbd_desc.c **** 
 263:Src/usbd_desc.c **** /**
ARM GAS  /tmp/ccDK0vjq.s 			page 7


 264:Src/usbd_desc.c ****   * @brief  Return the manufacturer string descriptor
 265:Src/usbd_desc.c ****   * @param  speed : Current device speed
 266:Src/usbd_desc.c ****   * @param  length : Pointer to data length variable
 267:Src/usbd_desc.c ****   * @retval Pointer to descriptor buffer
 268:Src/usbd_desc.c ****   */
 269:Src/usbd_desc.c **** uint8_t * USBD_FS_ManufacturerStrDescriptor(USBD_SpeedTypeDef speed, uint16_t *length)
 270:Src/usbd_desc.c **** {
 271:Src/usbd_desc.c ****   UNUSED(speed);
 272:Src/usbd_desc.c ****   USBD_GetString((uint8_t *)USBD_MANUFACTURER_STRING, USBD_StrDesc, length);
 273:Src/usbd_desc.c ****   return USBD_StrDesc;
 274:Src/usbd_desc.c **** }
 275:Src/usbd_desc.c **** 
 276:Src/usbd_desc.c **** /**
 277:Src/usbd_desc.c ****   * @brief  Return the serial number string descriptor
 278:Src/usbd_desc.c ****   * @param  speed : Current device speed
 279:Src/usbd_desc.c ****   * @param  length : Pointer to data length variable
 280:Src/usbd_desc.c ****   * @retval Pointer to descriptor buffer
 281:Src/usbd_desc.c ****   */
 282:Src/usbd_desc.c **** uint8_t * USBD_FS_SerialStrDescriptor(USBD_SpeedTypeDef speed, uint16_t *length)
 283:Src/usbd_desc.c **** {
 284:Src/usbd_desc.c ****   UNUSED(speed);
 285:Src/usbd_desc.c ****   *length = USB_SIZ_STRING_SERIAL;
 286:Src/usbd_desc.c **** 
 287:Src/usbd_desc.c ****   /* Update the serial number string descriptor with the data from the unique
 288:Src/usbd_desc.c ****    * ID */
 289:Src/usbd_desc.c ****   Get_SerialNum();
 290:Src/usbd_desc.c ****   /* USER CODE BEGIN USBD_FS_SerialStrDescriptor */
 291:Src/usbd_desc.c ****   
 292:Src/usbd_desc.c ****   /* USER CODE END USBD_FS_SerialStrDescriptor */
 293:Src/usbd_desc.c ****   return (uint8_t *) USBD_StringSerial;
 294:Src/usbd_desc.c **** }
 295:Src/usbd_desc.c **** 
 296:Src/usbd_desc.c **** /**
 297:Src/usbd_desc.c ****   * @brief  Return the configuration string descriptor
 298:Src/usbd_desc.c ****   * @param  speed : Current device speed
 299:Src/usbd_desc.c ****   * @param  length : Pointer to data length variable
 300:Src/usbd_desc.c ****   * @retval Pointer to descriptor buffer
 301:Src/usbd_desc.c ****   */
 302:Src/usbd_desc.c **** uint8_t * USBD_FS_ConfigStrDescriptor(USBD_SpeedTypeDef speed, uint16_t *length)
 303:Src/usbd_desc.c **** {
 304:Src/usbd_desc.c ****   if(speed == USBD_SPEED_HIGH)
 305:Src/usbd_desc.c ****   {
 306:Src/usbd_desc.c ****     USBD_GetString((uint8_t *)USBD_CONFIGURATION_STRING_FS, USBD_StrDesc, length);
 307:Src/usbd_desc.c ****   }
 308:Src/usbd_desc.c ****   else
 309:Src/usbd_desc.c ****   {
 310:Src/usbd_desc.c ****     USBD_GetString((uint8_t *)USBD_CONFIGURATION_STRING_FS, USBD_StrDesc, length);
 311:Src/usbd_desc.c ****   }
 312:Src/usbd_desc.c ****   return USBD_StrDesc;
 313:Src/usbd_desc.c **** }
 314:Src/usbd_desc.c **** 
 315:Src/usbd_desc.c **** /**
 316:Src/usbd_desc.c ****   * @brief  Return the interface string descriptor
 317:Src/usbd_desc.c ****   * @param  speed : Current device speed
 318:Src/usbd_desc.c ****   * @param  length : Pointer to data length variable
 319:Src/usbd_desc.c ****   * @retval Pointer to descriptor buffer
 320:Src/usbd_desc.c ****   */
ARM GAS  /tmp/ccDK0vjq.s 			page 8


 321:Src/usbd_desc.c **** uint8_t * USBD_FS_InterfaceStrDescriptor(USBD_SpeedTypeDef speed, uint16_t *length)
 322:Src/usbd_desc.c **** {
 323:Src/usbd_desc.c ****   if(speed == 0)
 324:Src/usbd_desc.c ****   {
 325:Src/usbd_desc.c ****     USBD_GetString((uint8_t *)USBD_INTERFACE_STRING_FS, USBD_StrDesc, length);
 326:Src/usbd_desc.c ****   }
 327:Src/usbd_desc.c ****   else
 328:Src/usbd_desc.c ****   {
 329:Src/usbd_desc.c ****     USBD_GetString((uint8_t *)USBD_INTERFACE_STRING_FS, USBD_StrDesc, length);
 330:Src/usbd_desc.c ****   }
 331:Src/usbd_desc.c ****   return USBD_StrDesc;
 332:Src/usbd_desc.c **** }
 333:Src/usbd_desc.c **** 
 334:Src/usbd_desc.c **** /**
 335:Src/usbd_desc.c ****   * @brief  Create the serial number string descriptor 
 336:Src/usbd_desc.c ****   * @param  None 
 337:Src/usbd_desc.c ****   * @retval None
 338:Src/usbd_desc.c ****   */
 339:Src/usbd_desc.c **** static void Get_SerialNum(void)
 340:Src/usbd_desc.c **** {
 341:Src/usbd_desc.c ****   uint32_t deviceserial0, deviceserial1, deviceserial2;
 342:Src/usbd_desc.c **** 
 343:Src/usbd_desc.c ****   deviceserial0 = *(uint32_t *) DEVICE_ID1;
 344:Src/usbd_desc.c ****   deviceserial1 = *(uint32_t *) DEVICE_ID2;
 345:Src/usbd_desc.c ****   deviceserial2 = *(uint32_t *) DEVICE_ID3;
 346:Src/usbd_desc.c **** 
 347:Src/usbd_desc.c ****   deviceserial0 += deviceserial2;
 348:Src/usbd_desc.c **** 
 349:Src/usbd_desc.c ****   if (deviceserial0 != 0)
 350:Src/usbd_desc.c ****   {
 351:Src/usbd_desc.c ****     IntToUnicode(deviceserial0, &USBD_StringSerial[2], 8);
 352:Src/usbd_desc.c ****     IntToUnicode(deviceserial1, &USBD_StringSerial[18], 4);
 353:Src/usbd_desc.c ****   }
 354:Src/usbd_desc.c **** }
 355:Src/usbd_desc.c **** 
 356:Src/usbd_desc.c **** /**
 357:Src/usbd_desc.c ****   * @brief  Convert Hex 32Bits value into char 
 358:Src/usbd_desc.c ****   * @param  value: value to convert
 359:Src/usbd_desc.c ****   * @param  pbuf: pointer to the buffer 
 360:Src/usbd_desc.c ****   * @param  len: buffer length
 361:Src/usbd_desc.c ****   * @retval None
 362:Src/usbd_desc.c ****   */
 363:Src/usbd_desc.c **** static void IntToUnicode(uint32_t value, uint8_t * pbuf, uint8_t len)
 364:Src/usbd_desc.c **** {
  85              		.loc 1 364 0
  86              		.cfi_startproc
  87              		@ args = 0, pretend = 0, frame = 0
  88              		@ frame_needed = 0, uses_anonymous_args = 0
  89              		@ link register save eliminated.
  90              	.LVL4:
 365:Src/usbd_desc.c ****   uint8_t idx = 0;
 366:Src/usbd_desc.c **** 
 367:Src/usbd_desc.c ****   for (idx = 0; idx < len; idx++)
  91              		.loc 1 367 0
  92 0000 0023     		movs	r3, #0
  93              	.LVL5:
  94 0002 9342     		cmp	r3, r2
ARM GAS  /tmp/ccDK0vjq.s 			page 9


  95 0004 16D2     		bcs	.L15
 364:Src/usbd_desc.c ****   uint8_t idx = 0;
  96              		.loc 1 364 0
  97 0006 30B4     		push	{r4, r5}
  98              	.LCFI0:
  99              		.cfi_def_cfa_offset 8
 100              		.cfi_offset 4, -8
 101              		.cfi_offset 5, -4
 102 0008 0BE0     		b	.L11
 103              	.L9:
 368:Src/usbd_desc.c ****   {
 369:Src/usbd_desc.c ****     if (((value >> 28)) < 0xA)
 370:Src/usbd_desc.c ****     {
 371:Src/usbd_desc.c ****       pbuf[2 * idx] = (value >> 28) + '0';
 372:Src/usbd_desc.c ****     }
 373:Src/usbd_desc.c ****     else
 374:Src/usbd_desc.c ****     {
 375:Src/usbd_desc.c ****       pbuf[2 * idx] = (value >> 28) + 'A' - 10;
 104              		.loc 1 375 0
 105 000a 3734     		adds	r4, r4, #55
 106 000c 01F81340 		strb	r4, [r1, r3, lsl #1]
 107              	.L10:
 376:Src/usbd_desc.c ****     }
 377:Src/usbd_desc.c **** 
 378:Src/usbd_desc.c ****     value = value << 4;
 108              		.loc 1 378 0 discriminator 2
 109 0010 0001     		lsls	r0, r0, #4
 110              	.LVL6:
 379:Src/usbd_desc.c **** 
 380:Src/usbd_desc.c ****     pbuf[2 * idx + 1] = 0;
 111              		.loc 1 380 0 discriminator 2
 112 0012 5C00     		lsls	r4, r3, #1
 113 0014 0134     		adds	r4, r4, #1
 114 0016 0025     		movs	r5, #0
 115 0018 0D55     		strb	r5, [r1, r4]
 367:Src/usbd_desc.c ****   {
 116              		.loc 1 367 0 discriminator 2
 117 001a 0133     		adds	r3, r3, #1
 118              	.LVL7:
 119 001c DBB2     		uxtb	r3, r3
 120              	.LVL8:
 121 001e 9342     		cmp	r3, r2
 122 0020 06D2     		bcs	.L16
 123              	.L11:
 369:Src/usbd_desc.c ****     {
 124              		.loc 1 369 0
 125 0022 040F     		lsrs	r4, r0, #28
 126 0024 092C     		cmp	r4, #9
 127 0026 F0D8     		bhi	.L9
 371:Src/usbd_desc.c ****     }
 128              		.loc 1 371 0
 129 0028 3034     		adds	r4, r4, #48
 130 002a 01F81340 		strb	r4, [r1, r3, lsl #1]
 131 002e EFE7     		b	.L10
 132              	.L16:
 381:Src/usbd_desc.c ****   }
 382:Src/usbd_desc.c **** }
ARM GAS  /tmp/ccDK0vjq.s 			page 10


 133              		.loc 1 382 0
 134 0030 30BC     		pop	{r4, r5}
 135              	.LCFI1:
 136              		.cfi_restore 5
 137              		.cfi_restore 4
 138              		.cfi_def_cfa_offset 0
 139 0032 7047     		bx	lr
 140              	.L15:
 141 0034 7047     		bx	lr
 142              		.cfi_endproc
 143              	.LFE76:
 145              		.section	.text.Get_SerialNum,"ax",%progbits
 146              		.align	1
 147              		.syntax unified
 148              		.thumb
 149              		.thumb_func
 150              		.fpu softvfp
 152              	Get_SerialNum:
 153              	.LFB75:
 340:Src/usbd_desc.c ****   uint32_t deviceserial0, deviceserial1, deviceserial2;
 154              		.loc 1 340 0
 155              		.cfi_startproc
 156              		@ args = 0, pretend = 0, frame = 0
 157              		@ frame_needed = 0, uses_anonymous_args = 0
 158 0000 38B5     		push	{r3, r4, r5, lr}
 159              	.LCFI2:
 160              		.cfi_def_cfa_offset 16
 161              		.cfi_offset 3, -16
 162              		.cfi_offset 4, -12
 163              		.cfi_offset 5, -8
 164              		.cfi_offset 14, -4
 343:Src/usbd_desc.c ****   deviceserial1 = *(uint32_t *) DEVICE_ID2;
 165              		.loc 1 343 0
 166 0002 0A4B     		ldr	r3, .L21
 167 0004 1868     		ldr	r0, [r3]
 168              	.LVL9:
 344:Src/usbd_desc.c ****   deviceserial2 = *(uint32_t *) DEVICE_ID3;
 169              		.loc 1 344 0
 170 0006 0433     		adds	r3, r3, #4
 171 0008 1C68     		ldr	r4, [r3]
 172              	.LVL10:
 345:Src/usbd_desc.c **** 
 173              		.loc 1 345 0
 174 000a 0433     		adds	r3, r3, #4
 175 000c 1B68     		ldr	r3, [r3]
 176              	.LVL11:
 349:Src/usbd_desc.c ****   {
 177              		.loc 1 349 0
 178 000e C018     		adds	r0, r0, r3
 179              	.LVL12:
 180 0010 00D1     		bne	.L20
 181              	.LVL13:
 182              	.L17:
 354:Src/usbd_desc.c **** 
 183              		.loc 1 354 0
 184 0012 38BD     		pop	{r3, r4, r5, pc}
 185              	.LVL14:
ARM GAS  /tmp/ccDK0vjq.s 			page 11


 186              	.L20:
 351:Src/usbd_desc.c ****     IntToUnicode(deviceserial1, &USBD_StringSerial[18], 4);
 187              		.loc 1 351 0
 188 0014 064D     		ldr	r5, .L21+4
 189 0016 0822     		movs	r2, #8
 190 0018 A91C     		adds	r1, r5, #2
 191 001a FFF7FEFF 		bl	IntToUnicode
 192              	.LVL15:
 352:Src/usbd_desc.c ****   }
 193              		.loc 1 352 0
 194 001e 0422     		movs	r2, #4
 195 0020 05F11201 		add	r1, r5, #18
 196 0024 2046     		mov	r0, r4
 197 0026 FFF7FEFF 		bl	IntToUnicode
 198              	.LVL16:
 354:Src/usbd_desc.c **** 
 199              		.loc 1 354 0
 200 002a F2E7     		b	.L17
 201              	.L22:
 202              		.align	2
 203              	.L21:
 204 002c E8F7FF1F 		.word	536868840
 205 0030 00000000 		.word	.LANCHOR2
 206              		.cfi_endproc
 207              	.LFE75:
 209              		.section	.text.USBD_FS_SerialStrDescriptor,"ax",%progbits
 210              		.align	1
 211              		.global	USBD_FS_SerialStrDescriptor
 212              		.syntax unified
 213              		.thumb
 214              		.thumb_func
 215              		.fpu softvfp
 217              	USBD_FS_SerialStrDescriptor:
 218              	.LFB72:
 283:Src/usbd_desc.c ****   UNUSED(speed);
 219              		.loc 1 283 0
 220              		.cfi_startproc
 221              		@ args = 0, pretend = 0, frame = 0
 222              		@ frame_needed = 0, uses_anonymous_args = 0
 223              	.LVL17:
 224 0000 08B5     		push	{r3, lr}
 225              	.LCFI3:
 226              		.cfi_def_cfa_offset 8
 227              		.cfi_offset 3, -8
 228              		.cfi_offset 14, -4
 285:Src/usbd_desc.c **** 
 229              		.loc 1 285 0
 230 0002 1A23     		movs	r3, #26
 231 0004 0B80     		strh	r3, [r1]	@ movhi
 289:Src/usbd_desc.c ****   /* USER CODE BEGIN USBD_FS_SerialStrDescriptor */
 232              		.loc 1 289 0
 233 0006 FFF7FEFF 		bl	Get_SerialNum
 234              	.LVL18:
 294:Src/usbd_desc.c **** 
 235              		.loc 1 294 0
 236 000a 0148     		ldr	r0, .L25
 237 000c 08BD     		pop	{r3, pc}
ARM GAS  /tmp/ccDK0vjq.s 			page 12


 238              	.L26:
 239 000e 00BF     		.align	2
 240              	.L25:
 241 0010 00000000 		.word	.LANCHOR2
 242              		.cfi_endproc
 243              	.LFE72:
 245              		.section	.text.USBD_FS_ProductStrDescriptor,"ax",%progbits
 246              		.align	1
 247              		.global	USBD_FS_ProductStrDescriptor
 248              		.syntax unified
 249              		.thumb
 250              		.thumb_func
 251              		.fpu softvfp
 253              	USBD_FS_ProductStrDescriptor:
 254              	.LFB70:
 251:Src/usbd_desc.c ****   if(speed == 0)
 255              		.loc 1 251 0
 256              		.cfi_startproc
 257              		@ args = 0, pretend = 0, frame = 0
 258              		@ frame_needed = 0, uses_anonymous_args = 0
 259              	.LVL19:
 260 0000 08B5     		push	{r3, lr}
 261              	.LCFI4:
 262              		.cfi_def_cfa_offset 8
 263              		.cfi_offset 3, -8
 264              		.cfi_offset 14, -4
 265 0002 0A46     		mov	r2, r1
 252:Src/usbd_desc.c ****   {
 266              		.loc 1 252 0
 267 0004 28B1     		cbz	r0, .L31
 258:Src/usbd_desc.c ****   }
 268              		.loc 1 258 0
 269 0006 0549     		ldr	r1, .L32
 270              	.LVL20:
 271 0008 0548     		ldr	r0, .L32+4
 272              	.LVL21:
 273 000a FFF7FEFF 		bl	USBD_GetString
 274              	.LVL22:
 275              	.L29:
 261:Src/usbd_desc.c **** 
 276              		.loc 1 261 0
 277 000e 0348     		ldr	r0, .L32
 278 0010 08BD     		pop	{r3, pc}
 279              	.LVL23:
 280              	.L31:
 254:Src/usbd_desc.c ****   }
 281              		.loc 1 254 0
 282 0012 0249     		ldr	r1, .L32
 283              	.LVL24:
 284 0014 0248     		ldr	r0, .L32+4
 285              	.LVL25:
 286 0016 FFF7FEFF 		bl	USBD_GetString
 287              	.LVL26:
 288 001a F8E7     		b	.L29
 289              	.L33:
 290              		.align	2
 291              	.L32:
ARM GAS  /tmp/ccDK0vjq.s 			page 13


 292 001c 00000000 		.word	USBD_StrDesc
 293 0020 00000000 		.word	.LC0
 294              		.cfi_endproc
 295              	.LFE70:
 297              		.section	.text.USBD_FS_ManufacturerStrDescriptor,"ax",%progbits
 298              		.align	1
 299              		.global	USBD_FS_ManufacturerStrDescriptor
 300              		.syntax unified
 301              		.thumb
 302              		.thumb_func
 303              		.fpu softvfp
 305              	USBD_FS_ManufacturerStrDescriptor:
 306              	.LFB71:
 270:Src/usbd_desc.c ****   UNUSED(speed);
 307              		.loc 1 270 0
 308              		.cfi_startproc
 309              		@ args = 0, pretend = 0, frame = 0
 310              		@ frame_needed = 0, uses_anonymous_args = 0
 311              	.LVL27:
 312 0000 10B5     		push	{r4, lr}
 313              	.LCFI5:
 314              		.cfi_def_cfa_offset 8
 315              		.cfi_offset 4, -8
 316              		.cfi_offset 14, -4
 272:Src/usbd_desc.c ****   return USBD_StrDesc;
 317              		.loc 1 272 0
 318 0002 044C     		ldr	r4, .L36
 319 0004 0A46     		mov	r2, r1
 320 0006 2146     		mov	r1, r4
 321              	.LVL28:
 322 0008 0348     		ldr	r0, .L36+4
 323              	.LVL29:
 324 000a FFF7FEFF 		bl	USBD_GetString
 325              	.LVL30:
 274:Src/usbd_desc.c **** 
 326              		.loc 1 274 0
 327 000e 2046     		mov	r0, r4
 328 0010 10BD     		pop	{r4, pc}
 329              	.L37:
 330 0012 00BF     		.align	2
 331              	.L36:
 332 0014 00000000 		.word	USBD_StrDesc
 333 0018 00000000 		.word	.LC1
 334              		.cfi_endproc
 335              	.LFE71:
 337              		.section	.text.USBD_FS_ConfigStrDescriptor,"ax",%progbits
 338              		.align	1
 339              		.global	USBD_FS_ConfigStrDescriptor
 340              		.syntax unified
 341              		.thumb
 342              		.thumb_func
 343              		.fpu softvfp
 345              	USBD_FS_ConfigStrDescriptor:
 346              	.LFB73:
 303:Src/usbd_desc.c ****   if(speed == USBD_SPEED_HIGH)
 347              		.loc 1 303 0
 348              		.cfi_startproc
ARM GAS  /tmp/ccDK0vjq.s 			page 14


 349              		@ args = 0, pretend = 0, frame = 0
 350              		@ frame_needed = 0, uses_anonymous_args = 0
 351              	.LVL31:
 352 0000 08B5     		push	{r3, lr}
 353              	.LCFI6:
 354              		.cfi_def_cfa_offset 8
 355              		.cfi_offset 3, -8
 356              		.cfi_offset 14, -4
 357 0002 0A46     		mov	r2, r1
 304:Src/usbd_desc.c ****   {
 358              		.loc 1 304 0
 359 0004 28B1     		cbz	r0, .L42
 310:Src/usbd_desc.c ****   }
 360              		.loc 1 310 0
 361 0006 0549     		ldr	r1, .L43
 362              	.LVL32:
 363 0008 0548     		ldr	r0, .L43+4
 364              	.LVL33:
 365 000a FFF7FEFF 		bl	USBD_GetString
 366              	.LVL34:
 367              	.L40:
 313:Src/usbd_desc.c **** 
 368              		.loc 1 313 0
 369 000e 0348     		ldr	r0, .L43
 370 0010 08BD     		pop	{r3, pc}
 371              	.LVL35:
 372              	.L42:
 306:Src/usbd_desc.c ****   }
 373              		.loc 1 306 0
 374 0012 0249     		ldr	r1, .L43
 375              	.LVL36:
 376 0014 0248     		ldr	r0, .L43+4
 377              	.LVL37:
 378 0016 FFF7FEFF 		bl	USBD_GetString
 379              	.LVL38:
 380 001a F8E7     		b	.L40
 381              	.L44:
 382              		.align	2
 383              	.L43:
 384 001c 00000000 		.word	USBD_StrDesc
 385 0020 00000000 		.word	.LC2
 386              		.cfi_endproc
 387              	.LFE73:
 389              		.section	.text.USBD_FS_InterfaceStrDescriptor,"ax",%progbits
 390              		.align	1
 391              		.global	USBD_FS_InterfaceStrDescriptor
 392              		.syntax unified
 393              		.thumb
 394              		.thumb_func
 395              		.fpu softvfp
 397              	USBD_FS_InterfaceStrDescriptor:
 398              	.LFB74:
 322:Src/usbd_desc.c ****   if(speed == 0)
 399              		.loc 1 322 0
 400              		.cfi_startproc
 401              		@ args = 0, pretend = 0, frame = 0
 402              		@ frame_needed = 0, uses_anonymous_args = 0
ARM GAS  /tmp/ccDK0vjq.s 			page 15


 403              	.LVL39:
 404 0000 08B5     		push	{r3, lr}
 405              	.LCFI7:
 406              		.cfi_def_cfa_offset 8
 407              		.cfi_offset 3, -8
 408              		.cfi_offset 14, -4
 409 0002 0A46     		mov	r2, r1
 323:Src/usbd_desc.c ****   {
 410              		.loc 1 323 0
 411 0004 28B1     		cbz	r0, .L49
 329:Src/usbd_desc.c ****   }
 412              		.loc 1 329 0
 413 0006 0549     		ldr	r1, .L50
 414              	.LVL40:
 415 0008 0548     		ldr	r0, .L50+4
 416              	.LVL41:
 417 000a FFF7FEFF 		bl	USBD_GetString
 418              	.LVL42:
 419              	.L47:
 332:Src/usbd_desc.c **** 
 420              		.loc 1 332 0
 421 000e 0348     		ldr	r0, .L50
 422 0010 08BD     		pop	{r3, pc}
 423              	.LVL43:
 424              	.L49:
 325:Src/usbd_desc.c ****   }
 425              		.loc 1 325 0
 426 0012 0249     		ldr	r1, .L50
 427              	.LVL44:
 428 0014 0248     		ldr	r0, .L50+4
 429              	.LVL45:
 430 0016 FFF7FEFF 		bl	USBD_GetString
 431              	.LVL46:
 432 001a F8E7     		b	.L47
 433              	.L51:
 434              		.align	2
 435              	.L50:
 436 001c 00000000 		.word	USBD_StrDesc
 437 0020 00000000 		.word	.LC3
 438              		.cfi_endproc
 439              	.LFE74:
 441              		.global	USBD_StringSerial
 442              		.comm	USBD_StrDesc,512,4
 443              		.global	USBD_LangIDDesc
 444              		.global	USBD_FS_DeviceDesc
 445              		.global	FS_Desc
 446              		.section	.data.FS_Desc,"aw",%progbits
 447              		.align	2
 450              	FS_Desc:
 451 0000 00000000 		.word	USBD_FS_DeviceDescriptor
 452 0004 00000000 		.word	USBD_FS_LangIDStrDescriptor
 453 0008 00000000 		.word	USBD_FS_ManufacturerStrDescriptor
 454 000c 00000000 		.word	USBD_FS_ProductStrDescriptor
 455 0010 00000000 		.word	USBD_FS_SerialStrDescriptor
 456 0014 00000000 		.word	USBD_FS_ConfigStrDescriptor
 457 0018 00000000 		.word	USBD_FS_InterfaceStrDescriptor
 458              		.section	.data.USBD_FS_DeviceDesc,"aw",%progbits
ARM GAS  /tmp/ccDK0vjq.s 			page 16


 459              		.align	2
 460              		.set	.LANCHOR0,. + 0
 463              	USBD_FS_DeviceDesc:
 464 0000 12       		.byte	18
 465 0001 01       		.byte	1
 466 0002 00       		.byte	0
 467 0003 02       		.byte	2
 468 0004 02       		.byte	2
 469 0005 02       		.byte	2
 470 0006 00       		.byte	0
 471 0007 40       		.byte	64
 472 0008 ED       		.byte	-19
 473 0009 FE       		.byte	-2
 474 000a DE       		.byte	-34
 475 000b C0       		.byte	-64
 476 000c 00       		.byte	0
 477 000d 02       		.byte	2
 478 000e 01       		.byte	1
 479 000f 02       		.byte	2
 480 0010 03       		.byte	3
 481 0011 01       		.byte	1
 482              		.section	.data.USBD_LangIDDesc,"aw",%progbits
 483              		.align	2
 484              		.set	.LANCHOR1,. + 0
 487              	USBD_LangIDDesc:
 488 0000 04       		.byte	4
 489 0001 03       		.byte	3
 490 0002 09       		.byte	9
 491 0003 04       		.byte	4
 492              		.section	.data.USBD_StringSerial,"aw",%progbits
 493              		.align	2
 494              		.set	.LANCHOR2,. + 0
 497              	USBD_StringSerial:
 498 0000 1A       		.byte	26
 499 0001 03       		.byte	3
 500 0002 00000000 		.space	24
 500      00000000 
 500      00000000 
 500      00000000 
 500      00000000 
 501              		.section	.rodata.USBD_FS_ConfigStrDescriptor.str1.4,"aMS",%progbits,1
 502              		.align	2
 503              	.LC2:
 504 0000 43444320 		.ascii	"CDC Config\000"
 504      436F6E66 
 504      696700
 505              		.section	.rodata.USBD_FS_InterfaceStrDescriptor.str1.4,"aMS",%progbits,1
 506              		.align	2
 507              	.LC3:
 508 0000 43444320 		.ascii	"CDC Interface\000"
 508      496E7465 
 508      72666163 
 508      6500
 509              		.section	.rodata.USBD_FS_ManufacturerStrDescriptor.str1.4,"aMS",%progbits,1
 510              		.align	2
 511              	.LC1:
 512 0000 4A4F5348 		.ascii	"JOSHAJOHNSON\000"
ARM GAS  /tmp/ccDK0vjq.s 			page 17


 512      414A4F48 
 512      4E534F4E 
 512      00
 513              		.section	.rodata.USBD_FS_ProductStrDescriptor.str1.4,"aMS",%progbits,1
 514              		.align	2
 515              	.LC0:
 516 0000 52462053 		.ascii	"RF Signal Generator\000"
 516      69676E61 
 516      6C204765 
 516      6E657261 
 516      746F7200 
 517              		.text
 518              	.Letext0:
 519              		.file 2 "/usr/include/newlib/machine/_default_types.h"
 520              		.file 3 "/usr/include/newlib/sys/lock.h"
 521              		.file 4 "/usr/include/newlib/sys/_types.h"
 522              		.file 5 "/usr/lib/gcc/arm-none-eabi/7.3.1/include/stddef.h"
 523              		.file 6 "/usr/include/newlib/sys/reent.h"
 524              		.file 7 "/usr/include/newlib/sys/_stdint.h"
 525              		.file 8 "/usr/include/newlib/stdlib.h"
 526              		.file 9 "Drivers/CMSIS/Include/core_cm3.h"
 527              		.file 10 "Drivers/CMSIS/Device/ST/STM32F1xx/Include/system_stm32f1xx.h"
 528              		.file 11 "Drivers/STM32F1xx_HAL_Driver/Inc/stm32f1xx_hal.h"
 529              		.file 12 "Inc/main.h"
 530              		.file 13 "Middlewares/ST/STM32_USB_Device_Library/Core/Inc/usbd_def.h"
 531              		.file 14 "Inc/usbd_desc.h"
 532              		.file 15 "Middlewares/ST/STM32_USB_Device_Library/Core/Inc/usbd_ctlreq.h"
ARM GAS  /tmp/ccDK0vjq.s 			page 18

